	.text
	.file	"countshit.bc"
	.section	.text.startup,"ax",@progbits
	.align	16, 0x90
	.type	_GLOBAL__sub_I_count.c,@function
_GLOBAL__sub_I_count.c:                 # @_GLOBAL__sub_I_count.c
	.cfi_startproc
# BB#0:
	pushq	%rbp
.Ltmp0:
	.cfi_def_cfa_offset 16
.Ltmp1:
	.cfi_offset %rbp, -16
	movq	%rsp, %rbp
.Ltmp2:
	.cfi_def_cfa_register %rbp
	callq	__cxx_global_var_init
	callq	__cxx_global_var_init.1
	popq	%rbp
	retq
.Lfunc_end0:
	.size	_GLOBAL__sub_I_count.c, .Lfunc_end0-_GLOBAL__sub_I_count.c
	.cfi_endproc

	.align	16, 0x90
	.type	__cxx_global_var_init,@function
__cxx_global_var_init:                  # @__cxx_global_var_init
	.cfi_startproc
# BB#0:
	pushq	%rbp
.Ltmp3:
	.cfi_def_cfa_offset 16
.Ltmp4:
	.cfi_offset %rbp, -16
	movq	%rsp, %rbp
.Ltmp5:
	.cfi_def_cfa_register %rbp
	movl	$_ZStL8__ioinit, %edi
	callq	_ZNSt8ios_base4InitC1Ev
	movl	$_ZNSt8ios_base4InitD1Ev, %edi
	movl	$_ZStL8__ioinit, %esi
	movl	$__dso_handle, %edx
	callq	__cxa_atexit
	popq	%rbp
	retq
.Lfunc_end1:
	.size	__cxx_global_var_init, .Lfunc_end1-__cxx_global_var_init
	.cfi_endproc

	.align	16, 0x90
	.type	__cxx_global_var_init.1,@function
__cxx_global_var_init.1:                # @__cxx_global_var_init.1
	.cfi_startproc
# BB#0:
	pushq	%rbp
.Ltmp6:
	.cfi_def_cfa_offset 16
.Ltmp7:
	.cfi_offset %rbp, -16
	movq	%rsp, %rbp
.Ltmp8:
	.cfi_def_cfa_register %rbp
	movl	$instmapper, %edi
	callq	_ZNSt3mapIPciSt4lessIS0_ESaISt4pairIKS0_iEEEC2Ev
	movl	$_ZNSt3mapIPciSt4lessIS0_ESaISt4pairIKS0_iEEED2Ev, %edi
	movl	$instmapper, %esi
	movl	$__dso_handle, %edx
	callq	__cxa_atexit
	popq	%rbp
	retq
.Lfunc_end2:
	.size	__cxx_global_var_init.1, .Lfunc_end2-__cxx_global_var_init.1
	.cfi_endproc

	.section	.text._ZNSt3mapIPciSt4lessIS0_ESaISt4pairIKS0_iEEEC2Ev,"axG",@progbits,_ZNSt3mapIPciSt4lessIS0_ESaISt4pairIKS0_iEEEC2Ev,comdat
	.weak	_ZNSt3mapIPciSt4lessIS0_ESaISt4pairIKS0_iEEEC2Ev
	.align	16, 0x90
	.type	_ZNSt3mapIPciSt4lessIS0_ESaISt4pairIKS0_iEEEC2Ev,@function
_ZNSt3mapIPciSt4lessIS0_ESaISt4pairIKS0_iEEEC2Ev: # @_ZNSt3mapIPciSt4lessIS0_ESaISt4pairIKS0_iEEEC2Ev
	.cfi_startproc
# BB#0:
	pushq	%rbp
.Ltmp9:
	.cfi_def_cfa_offset 16
.Ltmp10:
	.cfi_offset %rbp, -16
	movq	%rsp, %rbp
.Ltmp11:
	.cfi_def_cfa_register %rbp
	subq	$16, %rsp
	movq	%rdi, -8(%rbp)
	callq	_ZNSt8_Rb_treeIPcSt4pairIKS0_iESt10_Select1stIS3_ESt4lessIS0_ESaIS3_EEC2Ev
	addq	$16, %rsp
	popq	%rbp
	retq
.Lfunc_end3:
	.size	_ZNSt3mapIPciSt4lessIS0_ESaISt4pairIKS0_iEEEC2Ev, .Lfunc_end3-_ZNSt3mapIPciSt4lessIS0_ESaISt4pairIKS0_iEEEC2Ev
	.cfi_endproc

	.section	.text._ZNSt8_Rb_treeIPcSt4pairIKS0_iESt10_Select1stIS3_ESt4lessIS0_ESaIS3_EEC2Ev,"axG",@progbits,_ZNSt8_Rb_treeIPcSt4pairIKS0_iESt10_Select1stIS3_ESt4lessIS0_ESaIS3_EEC2Ev,comdat
	.weak	_ZNSt8_Rb_treeIPcSt4pairIKS0_iESt10_Select1stIS3_ESt4lessIS0_ESaIS3_EEC2Ev
	.align	16, 0x90
	.type	_ZNSt8_Rb_treeIPcSt4pairIKS0_iESt10_Select1stIS3_ESt4lessIS0_ESaIS3_EEC2Ev,@function
_ZNSt8_Rb_treeIPcSt4pairIKS0_iESt10_Select1stIS3_ESt4lessIS0_ESaIS3_EEC2Ev: # @_ZNSt8_Rb_treeIPcSt4pairIKS0_iESt10_Select1stIS3_ESt4lessIS0_ESaIS3_EEC2Ev
	.cfi_startproc
# BB#0:
	pushq	%rbp
.Ltmp12:
	.cfi_def_cfa_offset 16
.Ltmp13:
	.cfi_offset %rbp, -16
	movq	%rsp, %rbp
.Ltmp14:
	.cfi_def_cfa_register %rbp
	subq	$16, %rsp
	movq	%rdi, -8(%rbp)
	callq	_ZNSt8_Rb_treeIPcSt4pairIKS0_iESt10_Select1stIS3_ESt4lessIS0_ESaIS3_EE13_Rb_tree_implIS7_Lb0EEC2Ev
	addq	$16, %rsp
	popq	%rbp
	retq
.Lfunc_end4:
	.size	_ZNSt8_Rb_treeIPcSt4pairIKS0_iESt10_Select1stIS3_ESt4lessIS0_ESaIS3_EEC2Ev, .Lfunc_end4-_ZNSt8_Rb_treeIPcSt4pairIKS0_iESt10_Select1stIS3_ESt4lessIS0_ESaIS3_EEC2Ev
	.cfi_endproc

	.section	.text._ZNSt8_Rb_treeIPcSt4pairIKS0_iESt10_Select1stIS3_ESt4lessIS0_ESaIS3_EE13_Rb_tree_implIS7_Lb0EEC2Ev,"axG",@progbits,_ZNSt8_Rb_treeIPcSt4pairIKS0_iESt10_Select1stIS3_ESt4lessIS0_ESaIS3_EE13_Rb_tree_implIS7_Lb0EEC2Ev,comdat
	.weak	_ZNSt8_Rb_treeIPcSt4pairIKS0_iESt10_Select1stIS3_ESt4lessIS0_ESaIS3_EE13_Rb_tree_implIS7_Lb0EEC2Ev
	.align	16, 0x90
	.type	_ZNSt8_Rb_treeIPcSt4pairIKS0_iESt10_Select1stIS3_ESt4lessIS0_ESaIS3_EE13_Rb_tree_implIS7_Lb0EEC2Ev,@function
_ZNSt8_Rb_treeIPcSt4pairIKS0_iESt10_Select1stIS3_ESt4lessIS0_ESaIS3_EE13_Rb_tree_implIS7_Lb0EEC2Ev: # @_ZNSt8_Rb_treeIPcSt4pairIKS0_iESt10_Select1stIS3_ESt4lessIS0_ESaIS3_EE13_Rb_tree_implIS7_Lb0EEC2Ev
.Lfunc_begin0:
	.cfi_startproc
	.cfi_personality 3, __gxx_personality_v0
	.cfi_lsda 3, .Lexception0
# BB#0:
	pushq	%rbp
.Ltmp20:
	.cfi_def_cfa_offset 16
.Ltmp21:
	.cfi_offset %rbp, -16
	movq	%rsp, %rbp
.Ltmp22:
	.cfi_def_cfa_register %rbp
	pushq	%rbx
	subq	$24, %rsp
.Ltmp23:
	.cfi_offset %rbx, -24
	movq	%rdi, %rbx
	movq	%rbx, -16(%rbp)
	callq	_ZNSaISt13_Rb_tree_nodeISt4pairIKPciEEEC2Ev
.Ltmp15:
	movq	%rbx, %rdi
	callq	_ZNSt20_Rb_tree_key_compareISt4lessIPcEEC2Ev
.Ltmp16:
# BB#1:
	movq	%rbx, %rdi
	addq	$8, %rdi
.Ltmp17:
	callq	_ZNSt15_Rb_tree_headerC2Ev
.Ltmp18:
# BB#2:
	addq	$24, %rsp
	popq	%rbx
	popq	%rbp
	retq
.LBB5_3:
.Ltmp19:
	movq	%rax, -24(%rbp)
	movl	%edx, -28(%rbp)
	movq	%rbx, %rdi
	callq	_ZNSaISt13_Rb_tree_nodeISt4pairIKPciEEED2Ev
	movq	-24(%rbp), %rdi
	callq	_Unwind_Resume
.Lfunc_end5:
	.size	_ZNSt8_Rb_treeIPcSt4pairIKS0_iESt10_Select1stIS3_ESt4lessIS0_ESaIS3_EE13_Rb_tree_implIS7_Lb0EEC2Ev, .Lfunc_end5-_ZNSt8_Rb_treeIPcSt4pairIKS0_iESt10_Select1stIS3_ESt4lessIS0_ESaIS3_EE13_Rb_tree_implIS7_Lb0EEC2Ev
	.cfi_endproc
	.section	.gcc_except_table,"a",@progbits
	.align	4
GCC_except_table5:
.Lexception0:
	.byte	255                     # @LPStart Encoding = omit
	.byte	3                       # @TType Encoding = udata4
	.asciz	"\234"                  # @TType base offset
	.byte	3                       # Call site Encoding = udata4
	.byte	26                      # Call site table length
	.long	.Ltmp15-.Lfunc_begin0   # >> Call Site 1 <<
	.long	.Ltmp18-.Ltmp15         #   Call between .Ltmp15 and .Ltmp18
	.long	.Ltmp19-.Lfunc_begin0   #     jumps to .Ltmp19
	.byte	0                       #   On action: cleanup
	.long	.Ltmp18-.Lfunc_begin0   # >> Call Site 2 <<
	.long	.Lfunc_end5-.Ltmp18     #   Call between .Ltmp18 and .Lfunc_end5
	.long	0                       #     has no landing pad
	.byte	0                       #   On action: cleanup
	.align	4

	.section	.text._ZNSaISt13_Rb_tree_nodeISt4pairIKPciEEEC2Ev,"axG",@progbits,_ZNSaISt13_Rb_tree_nodeISt4pairIKPciEEEC2Ev,comdat
	.weak	_ZNSaISt13_Rb_tree_nodeISt4pairIKPciEEEC2Ev
	.align	16, 0x90
	.type	_ZNSaISt13_Rb_tree_nodeISt4pairIKPciEEEC2Ev,@function
_ZNSaISt13_Rb_tree_nodeISt4pairIKPciEEEC2Ev: # @_ZNSaISt13_Rb_tree_nodeISt4pairIKPciEEEC2Ev
	.cfi_startproc
# BB#0:
	pushq	%rbp
.Ltmp24:
	.cfi_def_cfa_offset 16
.Ltmp25:
	.cfi_offset %rbp, -16
	movq	%rsp, %rbp
.Ltmp26:
	.cfi_def_cfa_register %rbp
	subq	$16, %rsp
	movq	%rdi, -8(%rbp)
	callq	_ZN9__gnu_cxx13new_allocatorISt13_Rb_tree_nodeISt4pairIKPciEEEC2Ev
	addq	$16, %rsp
	popq	%rbp
	retq
.Lfunc_end6:
	.size	_ZNSaISt13_Rb_tree_nodeISt4pairIKPciEEEC2Ev, .Lfunc_end6-_ZNSaISt13_Rb_tree_nodeISt4pairIKPciEEEC2Ev
	.cfi_endproc

	.section	.text._ZN9__gnu_cxx13new_allocatorISt13_Rb_tree_nodeISt4pairIKPciEEEC2Ev,"axG",@progbits,_ZN9__gnu_cxx13new_allocatorISt13_Rb_tree_nodeISt4pairIKPciEEEC2Ev,comdat
	.weak	_ZN9__gnu_cxx13new_allocatorISt13_Rb_tree_nodeISt4pairIKPciEEEC2Ev
	.align	16, 0x90
	.type	_ZN9__gnu_cxx13new_allocatorISt13_Rb_tree_nodeISt4pairIKPciEEEC2Ev,@function
_ZN9__gnu_cxx13new_allocatorISt13_Rb_tree_nodeISt4pairIKPciEEEC2Ev: # @_ZN9__gnu_cxx13new_allocatorISt13_Rb_tree_nodeISt4pairIKPciEEEC2Ev
	.cfi_startproc
# BB#0:
	pushq	%rbp
.Ltmp27:
	.cfi_def_cfa_offset 16
.Ltmp28:
	.cfi_offset %rbp, -16
	movq	%rsp, %rbp
.Ltmp29:
	.cfi_def_cfa_register %rbp
	movq	%rdi, -8(%rbp)
	popq	%rbp
	retq
.Lfunc_end7:
	.size	_ZN9__gnu_cxx13new_allocatorISt13_Rb_tree_nodeISt4pairIKPciEEEC2Ev, .Lfunc_end7-_ZN9__gnu_cxx13new_allocatorISt13_Rb_tree_nodeISt4pairIKPciEEEC2Ev
	.cfi_endproc

	.section	.text._ZNSt20_Rb_tree_key_compareISt4lessIPcEEC2Ev,"axG",@progbits,_ZNSt20_Rb_tree_key_compareISt4lessIPcEEC2Ev,comdat
	.weak	_ZNSt20_Rb_tree_key_compareISt4lessIPcEEC2Ev
	.align	16, 0x90
	.type	_ZNSt20_Rb_tree_key_compareISt4lessIPcEEC2Ev,@function
_ZNSt20_Rb_tree_key_compareISt4lessIPcEEC2Ev: # @_ZNSt20_Rb_tree_key_compareISt4lessIPcEEC2Ev
	.cfi_startproc
# BB#0:
	pushq	%rbp
.Ltmp30:
	.cfi_def_cfa_offset 16
.Ltmp31:
	.cfi_offset %rbp, -16
	movq	%rsp, %rbp
.Ltmp32:
	.cfi_def_cfa_register %rbp
	movq	%rdi, -8(%rbp)
	popq	%rbp
	retq
.Lfunc_end8:
	.size	_ZNSt20_Rb_tree_key_compareISt4lessIPcEEC2Ev, .Lfunc_end8-_ZNSt20_Rb_tree_key_compareISt4lessIPcEEC2Ev
	.cfi_endproc

	.section	.text._ZNSt15_Rb_tree_headerC2Ev,"axG",@progbits,_ZNSt15_Rb_tree_headerC2Ev,comdat
	.weak	_ZNSt15_Rb_tree_headerC2Ev
	.align	16, 0x90
	.type	_ZNSt15_Rb_tree_headerC2Ev,@function
_ZNSt15_Rb_tree_headerC2Ev:             # @_ZNSt15_Rb_tree_headerC2Ev
	.cfi_startproc
# BB#0:
	pushq	%rbp
.Ltmp33:
	.cfi_def_cfa_offset 16
.Ltmp34:
	.cfi_offset %rbp, -16
	movq	%rsp, %rbp
.Ltmp35:
	.cfi_def_cfa_register %rbp
	subq	$16, %rsp
	movq	%rdi, -8(%rbp)
	movl	$0, (%rdi)
	callq	_ZNSt15_Rb_tree_header8_M_resetEv
	addq	$16, %rsp
	popq	%rbp
	retq
.Lfunc_end9:
	.size	_ZNSt15_Rb_tree_headerC2Ev, .Lfunc_end9-_ZNSt15_Rb_tree_headerC2Ev
	.cfi_endproc

	.section	.text._ZNSt15_Rb_tree_header8_M_resetEv,"axG",@progbits,_ZNSt15_Rb_tree_header8_M_resetEv,comdat
	.weak	_ZNSt15_Rb_tree_header8_M_resetEv
	.align	16, 0x90
	.type	_ZNSt15_Rb_tree_header8_M_resetEv,@function
_ZNSt15_Rb_tree_header8_M_resetEv:      # @_ZNSt15_Rb_tree_header8_M_resetEv
	.cfi_startproc
# BB#0:
	pushq	%rbp
.Ltmp36:
	.cfi_def_cfa_offset 16
.Ltmp37:
	.cfi_offset %rbp, -16
	movq	%rsp, %rbp
.Ltmp38:
	.cfi_def_cfa_register %rbp
	movq	%rdi, -8(%rbp)
	movq	$0, 8(%rdi)
	movq	%rdi, 16(%rdi)
	movq	%rdi, 24(%rdi)
	movq	$0, 32(%rdi)
	popq	%rbp
	retq
.Lfunc_end10:
	.size	_ZNSt15_Rb_tree_header8_M_resetEv, .Lfunc_end10-_ZNSt15_Rb_tree_header8_M_resetEv
	.cfi_endproc

	.section	.text._ZNSaISt13_Rb_tree_nodeISt4pairIKPciEEED2Ev,"axG",@progbits,_ZNSaISt13_Rb_tree_nodeISt4pairIKPciEEED2Ev,comdat
	.weak	_ZNSaISt13_Rb_tree_nodeISt4pairIKPciEEED2Ev
	.align	16, 0x90
	.type	_ZNSaISt13_Rb_tree_nodeISt4pairIKPciEEED2Ev,@function
_ZNSaISt13_Rb_tree_nodeISt4pairIKPciEEED2Ev: # @_ZNSaISt13_Rb_tree_nodeISt4pairIKPciEEED2Ev
	.cfi_startproc
# BB#0:
	pushq	%rbp
.Ltmp39:
	.cfi_def_cfa_offset 16
.Ltmp40:
	.cfi_offset %rbp, -16
	movq	%rsp, %rbp
.Ltmp41:
	.cfi_def_cfa_register %rbp
	subq	$16, %rsp
	movq	%rdi, -8(%rbp)
	callq	_ZN9__gnu_cxx13new_allocatorISt13_Rb_tree_nodeISt4pairIKPciEEED2Ev
	addq	$16, %rsp
	popq	%rbp
	retq
.Lfunc_end11:
	.size	_ZNSaISt13_Rb_tree_nodeISt4pairIKPciEEED2Ev, .Lfunc_end11-_ZNSaISt13_Rb_tree_nodeISt4pairIKPciEEED2Ev
	.cfi_endproc

	.section	.text._ZN9__gnu_cxx13new_allocatorISt13_Rb_tree_nodeISt4pairIKPciEEED2Ev,"axG",@progbits,_ZN9__gnu_cxx13new_allocatorISt13_Rb_tree_nodeISt4pairIKPciEEED2Ev,comdat
	.weak	_ZN9__gnu_cxx13new_allocatorISt13_Rb_tree_nodeISt4pairIKPciEEED2Ev
	.align	16, 0x90
	.type	_ZN9__gnu_cxx13new_allocatorISt13_Rb_tree_nodeISt4pairIKPciEEED2Ev,@function
_ZN9__gnu_cxx13new_allocatorISt13_Rb_tree_nodeISt4pairIKPciEEED2Ev: # @_ZN9__gnu_cxx13new_allocatorISt13_Rb_tree_nodeISt4pairIKPciEEED2Ev
	.cfi_startproc
# BB#0:
	pushq	%rbp
.Ltmp42:
	.cfi_def_cfa_offset 16
.Ltmp43:
	.cfi_offset %rbp, -16
	movq	%rsp, %rbp
.Ltmp44:
	.cfi_def_cfa_register %rbp
	movq	%rdi, -8(%rbp)
	popq	%rbp
	retq
.Lfunc_end12:
	.size	_ZN9__gnu_cxx13new_allocatorISt13_Rb_tree_nodeISt4pairIKPciEEED2Ev, .Lfunc_end12-_ZN9__gnu_cxx13new_allocatorISt13_Rb_tree_nodeISt4pairIKPciEEED2Ev
	.cfi_endproc

	.section	.text._ZNSt3mapIPciSt4lessIS0_ESaISt4pairIKS0_iEEED2Ev,"axG",@progbits,_ZNSt3mapIPciSt4lessIS0_ESaISt4pairIKS0_iEEED2Ev,comdat
	.weak	_ZNSt3mapIPciSt4lessIS0_ESaISt4pairIKS0_iEEED2Ev
	.align	16, 0x90
	.type	_ZNSt3mapIPciSt4lessIS0_ESaISt4pairIKS0_iEEED2Ev,@function
_ZNSt3mapIPciSt4lessIS0_ESaISt4pairIKS0_iEEED2Ev: # @_ZNSt3mapIPciSt4lessIS0_ESaISt4pairIKS0_iEEED2Ev
	.cfi_startproc
# BB#0:
	pushq	%rbp
.Ltmp45:
	.cfi_def_cfa_offset 16
.Ltmp46:
	.cfi_offset %rbp, -16
	movq	%rsp, %rbp
.Ltmp47:
	.cfi_def_cfa_register %rbp
	subq	$16, %rsp
	movq	%rdi, -8(%rbp)
	callq	_ZNSt8_Rb_treeIPcSt4pairIKS0_iESt10_Select1stIS3_ESt4lessIS0_ESaIS3_EED2Ev
	addq	$16, %rsp
	popq	%rbp
	retq
.Lfunc_end13:
	.size	_ZNSt3mapIPciSt4lessIS0_ESaISt4pairIKS0_iEEED2Ev, .Lfunc_end13-_ZNSt3mapIPciSt4lessIS0_ESaISt4pairIKS0_iEEED2Ev
	.cfi_endproc

	.section	.text._ZNSt8_Rb_treeIPcSt4pairIKS0_iESt10_Select1stIS3_ESt4lessIS0_ESaIS3_EED2Ev,"axG",@progbits,_ZNSt8_Rb_treeIPcSt4pairIKS0_iESt10_Select1stIS3_ESt4lessIS0_ESaIS3_EED2Ev,comdat
	.weak	_ZNSt8_Rb_treeIPcSt4pairIKS0_iESt10_Select1stIS3_ESt4lessIS0_ESaIS3_EED2Ev
	.align	16, 0x90
	.type	_ZNSt8_Rb_treeIPcSt4pairIKS0_iESt10_Select1stIS3_ESt4lessIS0_ESaIS3_EED2Ev,@function
_ZNSt8_Rb_treeIPcSt4pairIKS0_iESt10_Select1stIS3_ESt4lessIS0_ESaIS3_EED2Ev: # @_ZNSt8_Rb_treeIPcSt4pairIKS0_iESt10_Select1stIS3_ESt4lessIS0_ESaIS3_EED2Ev
.Lfunc_begin1:
	.cfi_startproc
	.cfi_personality 3, __gxx_personality_v0
	.cfi_lsda 3, .Lexception1
# BB#0:
	pushq	%rbp
.Ltmp53:
	.cfi_def_cfa_offset 16
.Ltmp54:
	.cfi_offset %rbp, -16
	movq	%rsp, %rbp
.Ltmp55:
	.cfi_def_cfa_register %rbp
	pushq	%rbx
	subq	$24, %rsp
.Ltmp56:
	.cfi_offset %rbx, -24
	movq	%rdi, %rbx
	movq	%rbx, -16(%rbp)
.Ltmp48:
	callq	_ZNSt8_Rb_treeIPcSt4pairIKS0_iESt10_Select1stIS3_ESt4lessIS0_ESaIS3_EE8_M_beginEv
.Ltmp49:
# BB#1:
.Ltmp50:
	movq	%rbx, %rdi
	movq	%rax, %rsi
	callq	_ZNSt8_Rb_treeIPcSt4pairIKS0_iESt10_Select1stIS3_ESt4lessIS0_ESaIS3_EE8_M_eraseEPSt13_Rb_tree_nodeIS3_E
.Ltmp51:
# BB#2:
	movq	%rbx, %rdi
	callq	_ZNSt8_Rb_treeIPcSt4pairIKS0_iESt10_Select1stIS3_ESt4lessIS0_ESaIS3_EE13_Rb_tree_implIS7_Lb0EED2Ev
	addq	$24, %rsp
	popq	%rbx
	popq	%rbp
	retq
.LBB14_3:
.Ltmp52:
	movq	%rax, -24(%rbp)
	movl	%edx, -28(%rbp)
	movq	%rbx, %rdi
	callq	_ZNSt8_Rb_treeIPcSt4pairIKS0_iESt10_Select1stIS3_ESt4lessIS0_ESaIS3_EE13_Rb_tree_implIS7_Lb0EED2Ev
	movq	-24(%rbp), %rdi
	callq	_Unwind_Resume
.Lfunc_end14:
	.size	_ZNSt8_Rb_treeIPcSt4pairIKS0_iESt10_Select1stIS3_ESt4lessIS0_ESaIS3_EED2Ev, .Lfunc_end14-_ZNSt8_Rb_treeIPcSt4pairIKS0_iESt10_Select1stIS3_ESt4lessIS0_ESaIS3_EED2Ev
	.cfi_endproc
	.section	.gcc_except_table,"a",@progbits
	.align	4
GCC_except_table14:
.Lexception1:
	.byte	255                     # @LPStart Encoding = omit
	.byte	3                       # @TType Encoding = udata4
	.asciz	"\234"                  # @TType base offset
	.byte	3                       # Call site Encoding = udata4
	.byte	26                      # Call site table length
	.long	.Ltmp48-.Lfunc_begin1   # >> Call Site 1 <<
	.long	.Ltmp51-.Ltmp48         #   Call between .Ltmp48 and .Ltmp51
	.long	.Ltmp52-.Lfunc_begin1   #     jumps to .Ltmp52
	.byte	0                       #   On action: cleanup
	.long	.Ltmp51-.Lfunc_begin1   # >> Call Site 2 <<
	.long	.Lfunc_end14-.Ltmp51    #   Call between .Ltmp51 and .Lfunc_end14
	.long	0                       #     has no landing pad
	.byte	0                       #   On action: cleanup
	.align	4

	.section	.text._ZNSt8_Rb_treeIPcSt4pairIKS0_iESt10_Select1stIS3_ESt4lessIS0_ESaIS3_EE8_M_beginEv,"axG",@progbits,_ZNSt8_Rb_treeIPcSt4pairIKS0_iESt10_Select1stIS3_ESt4lessIS0_ESaIS3_EE8_M_beginEv,comdat
	.weak	_ZNSt8_Rb_treeIPcSt4pairIKS0_iESt10_Select1stIS3_ESt4lessIS0_ESaIS3_EE8_M_beginEv
	.align	16, 0x90
	.type	_ZNSt8_Rb_treeIPcSt4pairIKS0_iESt10_Select1stIS3_ESt4lessIS0_ESaIS3_EE8_M_beginEv,@function
_ZNSt8_Rb_treeIPcSt4pairIKS0_iESt10_Select1stIS3_ESt4lessIS0_ESaIS3_EE8_M_beginEv: # @_ZNSt8_Rb_treeIPcSt4pairIKS0_iESt10_Select1stIS3_ESt4lessIS0_ESaIS3_EE8_M_beginEv
	.cfi_startproc
# BB#0:
	pushq	%rbp
.Ltmp57:
	.cfi_def_cfa_offset 16
.Ltmp58:
	.cfi_offset %rbp, -16
	movq	%rsp, %rbp
.Ltmp59:
	.cfi_def_cfa_register %rbp
	movq	%rdi, -8(%rbp)
	movq	16(%rdi), %rax
	popq	%rbp
	retq
.Lfunc_end15:
	.size	_ZNSt8_Rb_treeIPcSt4pairIKS0_iESt10_Select1stIS3_ESt4lessIS0_ESaIS3_EE8_M_beginEv, .Lfunc_end15-_ZNSt8_Rb_treeIPcSt4pairIKS0_iESt10_Select1stIS3_ESt4lessIS0_ESaIS3_EE8_M_beginEv
	.cfi_endproc

	.section	.text._ZNSt8_Rb_treeIPcSt4pairIKS0_iESt10_Select1stIS3_ESt4lessIS0_ESaIS3_EE8_M_eraseEPSt13_Rb_tree_nodeIS3_E,"axG",@progbits,_ZNSt8_Rb_treeIPcSt4pairIKS0_iESt10_Select1stIS3_ESt4lessIS0_ESaIS3_EE8_M_eraseEPSt13_Rb_tree_nodeIS3_E,comdat
	.weak	_ZNSt8_Rb_treeIPcSt4pairIKS0_iESt10_Select1stIS3_ESt4lessIS0_ESaIS3_EE8_M_eraseEPSt13_Rb_tree_nodeIS3_E
	.align	16, 0x90
	.type	_ZNSt8_Rb_treeIPcSt4pairIKS0_iESt10_Select1stIS3_ESt4lessIS0_ESaIS3_EE8_M_eraseEPSt13_Rb_tree_nodeIS3_E,@function
_ZNSt8_Rb_treeIPcSt4pairIKS0_iESt10_Select1stIS3_ESt4lessIS0_ESaIS3_EE8_M_eraseEPSt13_Rb_tree_nodeIS3_E: # @_ZNSt8_Rb_treeIPcSt4pairIKS0_iESt10_Select1stIS3_ESt4lessIS0_ESaIS3_EE8_M_eraseEPSt13_Rb_tree_nodeIS3_E
	.cfi_startproc
# BB#0:
	pushq	%rbp
.Ltmp60:
	.cfi_def_cfa_offset 16
.Ltmp61:
	.cfi_offset %rbp, -16
	movq	%rsp, %rbp
.Ltmp62:
	.cfi_def_cfa_register %rbp
	pushq	%rbx
	subq	$24, %rsp
.Ltmp63:
	.cfi_offset %rbx, -24
	movq	%rdi, -16(%rbp)
	movq	%rsi, -24(%rbp)
	movq	-16(%rbp), %rbx
	jmp	.LBB16_1
	.align	16, 0x90
.LBB16_2:                               #   in Loop: Header=BB16_1 Depth=1
	movq	-24(%rbp), %rdi
	callq	_ZNSt8_Rb_treeIPcSt4pairIKS0_iESt10_Select1stIS3_ESt4lessIS0_ESaIS3_EE8_S_rightEPSt18_Rb_tree_node_base
	movq	%rbx, %rdi
	movq	%rax, %rsi
	callq	_ZNSt8_Rb_treeIPcSt4pairIKS0_iESt10_Select1stIS3_ESt4lessIS0_ESaIS3_EE8_M_eraseEPSt13_Rb_tree_nodeIS3_E
	movq	-24(%rbp), %rdi
	callq	_ZNSt8_Rb_treeIPcSt4pairIKS0_iESt10_Select1stIS3_ESt4lessIS0_ESaIS3_EE7_S_leftEPSt18_Rb_tree_node_base
	movq	%rax, -32(%rbp)
	movq	-24(%rbp), %rsi
	movq	%rbx, %rdi
	callq	_ZNSt8_Rb_treeIPcSt4pairIKS0_iESt10_Select1stIS3_ESt4lessIS0_ESaIS3_EE12_M_drop_nodeEPSt13_Rb_tree_nodeIS3_E
	movq	-32(%rbp), %rax
	movq	%rax, -24(%rbp)
.LBB16_1:                               # =>This Inner Loop Header: Depth=1
	cmpq	$0, -24(%rbp)
	jne	.LBB16_2
# BB#3:
	addq	$24, %rsp
	popq	%rbx
	popq	%rbp
	retq
.Lfunc_end16:
	.size	_ZNSt8_Rb_treeIPcSt4pairIKS0_iESt10_Select1stIS3_ESt4lessIS0_ESaIS3_EE8_M_eraseEPSt13_Rb_tree_nodeIS3_E, .Lfunc_end16-_ZNSt8_Rb_treeIPcSt4pairIKS0_iESt10_Select1stIS3_ESt4lessIS0_ESaIS3_EE8_M_eraseEPSt13_Rb_tree_nodeIS3_E
	.cfi_endproc

	.section	.text._ZNSt8_Rb_treeIPcSt4pairIKS0_iESt10_Select1stIS3_ESt4lessIS0_ESaIS3_EE8_S_rightEPSt18_Rb_tree_node_base,"axG",@progbits,_ZNSt8_Rb_treeIPcSt4pairIKS0_iESt10_Select1stIS3_ESt4lessIS0_ESaIS3_EE8_S_rightEPSt18_Rb_tree_node_base,comdat
	.weak	_ZNSt8_Rb_treeIPcSt4pairIKS0_iESt10_Select1stIS3_ESt4lessIS0_ESaIS3_EE8_S_rightEPSt18_Rb_tree_node_base
	.align	16, 0x90
	.type	_ZNSt8_Rb_treeIPcSt4pairIKS0_iESt10_Select1stIS3_ESt4lessIS0_ESaIS3_EE8_S_rightEPSt18_Rb_tree_node_base,@function
_ZNSt8_Rb_treeIPcSt4pairIKS0_iESt10_Select1stIS3_ESt4lessIS0_ESaIS3_EE8_S_rightEPSt18_Rb_tree_node_base: # @_ZNSt8_Rb_treeIPcSt4pairIKS0_iESt10_Select1stIS3_ESt4lessIS0_ESaIS3_EE8_S_rightEPSt18_Rb_tree_node_base
	.cfi_startproc
# BB#0:
	pushq	%rbp
.Ltmp64:
	.cfi_def_cfa_offset 16
.Ltmp65:
	.cfi_offset %rbp, -16
	movq	%rsp, %rbp
.Ltmp66:
	.cfi_def_cfa_register %rbp
	movq	%rdi, -8(%rbp)
	movq	24(%rdi), %rax
	popq	%rbp
	retq
.Lfunc_end17:
	.size	_ZNSt8_Rb_treeIPcSt4pairIKS0_iESt10_Select1stIS3_ESt4lessIS0_ESaIS3_EE8_S_rightEPSt18_Rb_tree_node_base, .Lfunc_end17-_ZNSt8_Rb_treeIPcSt4pairIKS0_iESt10_Select1stIS3_ESt4lessIS0_ESaIS3_EE8_S_rightEPSt18_Rb_tree_node_base
	.cfi_endproc

	.section	.text._ZNSt8_Rb_treeIPcSt4pairIKS0_iESt10_Select1stIS3_ESt4lessIS0_ESaIS3_EE7_S_leftEPSt18_Rb_tree_node_base,"axG",@progbits,_ZNSt8_Rb_treeIPcSt4pairIKS0_iESt10_Select1stIS3_ESt4lessIS0_ESaIS3_EE7_S_leftEPSt18_Rb_tree_node_base,comdat
	.weak	_ZNSt8_Rb_treeIPcSt4pairIKS0_iESt10_Select1stIS3_ESt4lessIS0_ESaIS3_EE7_S_leftEPSt18_Rb_tree_node_base
	.align	16, 0x90
	.type	_ZNSt8_Rb_treeIPcSt4pairIKS0_iESt10_Select1stIS3_ESt4lessIS0_ESaIS3_EE7_S_leftEPSt18_Rb_tree_node_base,@function
_ZNSt8_Rb_treeIPcSt4pairIKS0_iESt10_Select1stIS3_ESt4lessIS0_ESaIS3_EE7_S_leftEPSt18_Rb_tree_node_base: # @_ZNSt8_Rb_treeIPcSt4pairIKS0_iESt10_Select1stIS3_ESt4lessIS0_ESaIS3_EE7_S_leftEPSt18_Rb_tree_node_base
	.cfi_startproc
# BB#0:
	pushq	%rbp
.Ltmp67:
	.cfi_def_cfa_offset 16
.Ltmp68:
	.cfi_offset %rbp, -16
	movq	%rsp, %rbp
.Ltmp69:
	.cfi_def_cfa_register %rbp
	movq	%rdi, -8(%rbp)
	movq	16(%rdi), %rax
	popq	%rbp
	retq
.Lfunc_end18:
	.size	_ZNSt8_Rb_treeIPcSt4pairIKS0_iESt10_Select1stIS3_ESt4lessIS0_ESaIS3_EE7_S_leftEPSt18_Rb_tree_node_base, .Lfunc_end18-_ZNSt8_Rb_treeIPcSt4pairIKS0_iESt10_Select1stIS3_ESt4lessIS0_ESaIS3_EE7_S_leftEPSt18_Rb_tree_node_base
	.cfi_endproc

	.section	.text._ZNSt8_Rb_treeIPcSt4pairIKS0_iESt10_Select1stIS3_ESt4lessIS0_ESaIS3_EE12_M_drop_nodeEPSt13_Rb_tree_nodeIS3_E,"axG",@progbits,_ZNSt8_Rb_treeIPcSt4pairIKS0_iESt10_Select1stIS3_ESt4lessIS0_ESaIS3_EE12_M_drop_nodeEPSt13_Rb_tree_nodeIS3_E,comdat
	.weak	_ZNSt8_Rb_treeIPcSt4pairIKS0_iESt10_Select1stIS3_ESt4lessIS0_ESaIS3_EE12_M_drop_nodeEPSt13_Rb_tree_nodeIS3_E
	.align	16, 0x90
	.type	_ZNSt8_Rb_treeIPcSt4pairIKS0_iESt10_Select1stIS3_ESt4lessIS0_ESaIS3_EE12_M_drop_nodeEPSt13_Rb_tree_nodeIS3_E,@function
_ZNSt8_Rb_treeIPcSt4pairIKS0_iESt10_Select1stIS3_ESt4lessIS0_ESaIS3_EE12_M_drop_nodeEPSt13_Rb_tree_nodeIS3_E: # @_ZNSt8_Rb_treeIPcSt4pairIKS0_iESt10_Select1stIS3_ESt4lessIS0_ESaIS3_EE12_M_drop_nodeEPSt13_Rb_tree_nodeIS3_E
	.cfi_startproc
# BB#0:
	pushq	%rbp
.Ltmp70:
	.cfi_def_cfa_offset 16
.Ltmp71:
	.cfi_offset %rbp, -16
	movq	%rsp, %rbp
.Ltmp72:
	.cfi_def_cfa_register %rbp
	pushq	%rbx
	subq	$24, %rsp
.Ltmp73:
	.cfi_offset %rbx, -24
	movq	%rdi, -16(%rbp)
	movq	%rsi, -24(%rbp)
	movq	-16(%rbp), %rbx
	movq	%rbx, %rdi
	callq	_ZNSt8_Rb_treeIPcSt4pairIKS0_iESt10_Select1stIS3_ESt4lessIS0_ESaIS3_EE15_M_destroy_nodeEPSt13_Rb_tree_nodeIS3_E
	movq	-24(%rbp), %rsi
	movq	%rbx, %rdi
	callq	_ZNSt8_Rb_treeIPcSt4pairIKS0_iESt10_Select1stIS3_ESt4lessIS0_ESaIS3_EE11_M_put_nodeEPSt13_Rb_tree_nodeIS3_E
	addq	$24, %rsp
	popq	%rbx
	popq	%rbp
	retq
.Lfunc_end19:
	.size	_ZNSt8_Rb_treeIPcSt4pairIKS0_iESt10_Select1stIS3_ESt4lessIS0_ESaIS3_EE12_M_drop_nodeEPSt13_Rb_tree_nodeIS3_E, .Lfunc_end19-_ZNSt8_Rb_treeIPcSt4pairIKS0_iESt10_Select1stIS3_ESt4lessIS0_ESaIS3_EE12_M_drop_nodeEPSt13_Rb_tree_nodeIS3_E
	.cfi_endproc

	.section	.text._ZNSt8_Rb_treeIPcSt4pairIKS0_iESt10_Select1stIS3_ESt4lessIS0_ESaIS3_EE15_M_destroy_nodeEPSt13_Rb_tree_nodeIS3_E,"axG",@progbits,_ZNSt8_Rb_treeIPcSt4pairIKS0_iESt10_Select1stIS3_ESt4lessIS0_ESaIS3_EE15_M_destroy_nodeEPSt13_Rb_tree_nodeIS3_E,comdat
	.weak	_ZNSt8_Rb_treeIPcSt4pairIKS0_iESt10_Select1stIS3_ESt4lessIS0_ESaIS3_EE15_M_destroy_nodeEPSt13_Rb_tree_nodeIS3_E
	.align	16, 0x90
	.type	_ZNSt8_Rb_treeIPcSt4pairIKS0_iESt10_Select1stIS3_ESt4lessIS0_ESaIS3_EE15_M_destroy_nodeEPSt13_Rb_tree_nodeIS3_E,@function
_ZNSt8_Rb_treeIPcSt4pairIKS0_iESt10_Select1stIS3_ESt4lessIS0_ESaIS3_EE15_M_destroy_nodeEPSt13_Rb_tree_nodeIS3_E: # @_ZNSt8_Rb_treeIPcSt4pairIKS0_iESt10_Select1stIS3_ESt4lessIS0_ESaIS3_EE15_M_destroy_nodeEPSt13_Rb_tree_nodeIS3_E
.Lfunc_begin2:
	.cfi_startproc
	.cfi_personality 3, __gxx_personality_v0
	.cfi_lsda 3, .Lexception2
# BB#0:
	pushq	%rbp
.Ltmp79:
	.cfi_def_cfa_offset 16
.Ltmp80:
	.cfi_offset %rbp, -16
	movq	%rsp, %rbp
.Ltmp81:
	.cfi_def_cfa_register %rbp
	subq	$48, %rsp
	movq	%rdi, -8(%rbp)
	movq	%rsi, -16(%rbp)
	movq	-8(%rbp), %rsi
	leaq	-24(%rbp), %rdi
	callq	_ZNKSt8_Rb_treeIPcSt4pairIKS0_iESt10_Select1stIS3_ESt4lessIS0_ESaIS3_EE13get_allocatorEv
	movq	-16(%rbp), %rdi
.Ltmp74:
	callq	_ZNSt13_Rb_tree_nodeISt4pairIKPciEE9_M_valptrEv
.Ltmp75:
# BB#1:
.Ltmp76:
	leaq	-24(%rbp), %rdi
	movq	%rax, %rsi
	callq	_ZN9__gnu_cxx13new_allocatorISt4pairIKPciEE7destroyEPS4_
.Ltmp77:
# BB#2:
	leaq	-24(%rbp), %rdi
	callq	_ZNSaISt4pairIKPciEED2Ev
	addq	$48, %rsp
	popq	%rbp
	retq
.LBB20_3:
.Ltmp78:
	movq	%rax, -32(%rbp)
	movl	%edx, -36(%rbp)
	leaq	-24(%rbp), %rdi
	callq	_ZNSaISt4pairIKPciEED2Ev
	movq	-32(%rbp), %rdi
	callq	_Unwind_Resume
.Lfunc_end20:
	.size	_ZNSt8_Rb_treeIPcSt4pairIKS0_iESt10_Select1stIS3_ESt4lessIS0_ESaIS3_EE15_M_destroy_nodeEPSt13_Rb_tree_nodeIS3_E, .Lfunc_end20-_ZNSt8_Rb_treeIPcSt4pairIKS0_iESt10_Select1stIS3_ESt4lessIS0_ESaIS3_EE15_M_destroy_nodeEPSt13_Rb_tree_nodeIS3_E
	.cfi_endproc
	.section	.gcc_except_table,"a",@progbits
	.align	4
GCC_except_table20:
.Lexception2:
	.byte	255                     # @LPStart Encoding = omit
	.byte	3                       # @TType Encoding = udata4
	.byte	41                      # @TType base offset
	.byte	3                       # Call site Encoding = udata4
	.byte	39                      # Call site table length
	.long	.Lfunc_begin2-.Lfunc_begin2 # >> Call Site 1 <<
	.long	.Ltmp74-.Lfunc_begin2   #   Call between .Lfunc_begin2 and .Ltmp74
	.long	0                       #     has no landing pad
	.byte	0                       #   On action: cleanup
	.long	.Ltmp74-.Lfunc_begin2   # >> Call Site 2 <<
	.long	.Ltmp77-.Ltmp74         #   Call between .Ltmp74 and .Ltmp77
	.long	.Ltmp78-.Lfunc_begin2   #     jumps to .Ltmp78
	.byte	0                       #   On action: cleanup
	.long	.Ltmp77-.Lfunc_begin2   # >> Call Site 3 <<
	.long	.Lfunc_end20-.Ltmp77    #   Call between .Ltmp77 and .Lfunc_end20
	.long	0                       #     has no landing pad
	.byte	0                       #   On action: cleanup
	.align	4

	.section	.text._ZNKSt8_Rb_treeIPcSt4pairIKS0_iESt10_Select1stIS3_ESt4lessIS0_ESaIS3_EE13get_allocatorEv,"axG",@progbits,_ZNKSt8_Rb_treeIPcSt4pairIKS0_iESt10_Select1stIS3_ESt4lessIS0_ESaIS3_EE13get_allocatorEv,comdat
	.weak	_ZNKSt8_Rb_treeIPcSt4pairIKS0_iESt10_Select1stIS3_ESt4lessIS0_ESaIS3_EE13get_allocatorEv
	.align	16, 0x90
	.type	_ZNKSt8_Rb_treeIPcSt4pairIKS0_iESt10_Select1stIS3_ESt4lessIS0_ESaIS3_EE13get_allocatorEv,@function
_ZNKSt8_Rb_treeIPcSt4pairIKS0_iESt10_Select1stIS3_ESt4lessIS0_ESaIS3_EE13get_allocatorEv: # @_ZNKSt8_Rb_treeIPcSt4pairIKS0_iESt10_Select1stIS3_ESt4lessIS0_ESaIS3_EE13get_allocatorEv
	.cfi_startproc
# BB#0:
	pushq	%rbp
.Ltmp82:
	.cfi_def_cfa_offset 16
.Ltmp83:
	.cfi_offset %rbp, -16
	movq	%rsp, %rbp
.Ltmp84:
	.cfi_def_cfa_register %rbp
	pushq	%rbx
	pushq	%rax
.Ltmp85:
	.cfi_offset %rbx, -24
	movq	%rdi, %rbx
	movq	%rsi, -16(%rbp)
	movq	%rsi, %rdi
	callq	_ZNKSt8_Rb_treeIPcSt4pairIKS0_iESt10_Select1stIS3_ESt4lessIS0_ESaIS3_EE21_M_get_Node_allocatorEv
	movq	%rbx, %rdi
	movq	%rax, %rsi
	callq	_ZNSaISt4pairIKPciEEC2ISt13_Rb_tree_nodeIS2_EEERKSaIT_E
	movq	%rbx, %rax
	addq	$8, %rsp
	popq	%rbx
	popq	%rbp
	retq
.Lfunc_end21:
	.size	_ZNKSt8_Rb_treeIPcSt4pairIKS0_iESt10_Select1stIS3_ESt4lessIS0_ESaIS3_EE13get_allocatorEv, .Lfunc_end21-_ZNKSt8_Rb_treeIPcSt4pairIKS0_iESt10_Select1stIS3_ESt4lessIS0_ESaIS3_EE13get_allocatorEv
	.cfi_endproc

	.section	.text._ZNKSt8_Rb_treeIPcSt4pairIKS0_iESt10_Select1stIS3_ESt4lessIS0_ESaIS3_EE21_M_get_Node_allocatorEv,"axG",@progbits,_ZNKSt8_Rb_treeIPcSt4pairIKS0_iESt10_Select1stIS3_ESt4lessIS0_ESaIS3_EE21_M_get_Node_allocatorEv,comdat
	.weak	_ZNKSt8_Rb_treeIPcSt4pairIKS0_iESt10_Select1stIS3_ESt4lessIS0_ESaIS3_EE21_M_get_Node_allocatorEv
	.align	16, 0x90
	.type	_ZNKSt8_Rb_treeIPcSt4pairIKS0_iESt10_Select1stIS3_ESt4lessIS0_ESaIS3_EE21_M_get_Node_allocatorEv,@function
_ZNKSt8_Rb_treeIPcSt4pairIKS0_iESt10_Select1stIS3_ESt4lessIS0_ESaIS3_EE21_M_get_Node_allocatorEv: # @_ZNKSt8_Rb_treeIPcSt4pairIKS0_iESt10_Select1stIS3_ESt4lessIS0_ESaIS3_EE21_M_get_Node_allocatorEv
	.cfi_startproc
# BB#0:
	pushq	%rbp
.Ltmp86:
	.cfi_def_cfa_offset 16
.Ltmp87:
	.cfi_offset %rbp, -16
	movq	%rsp, %rbp
.Ltmp88:
	.cfi_def_cfa_register %rbp
	movq	%rdi, -8(%rbp)
	movq	%rdi, %rax
	popq	%rbp
	retq
.Lfunc_end22:
	.size	_ZNKSt8_Rb_treeIPcSt4pairIKS0_iESt10_Select1stIS3_ESt4lessIS0_ESaIS3_EE21_M_get_Node_allocatorEv, .Lfunc_end22-_ZNKSt8_Rb_treeIPcSt4pairIKS0_iESt10_Select1stIS3_ESt4lessIS0_ESaIS3_EE21_M_get_Node_allocatorEv
	.cfi_endproc

	.section	.text._ZNSaISt4pairIKPciEEC2ISt13_Rb_tree_nodeIS2_EEERKSaIT_E,"axG",@progbits,_ZNSaISt4pairIKPciEEC2ISt13_Rb_tree_nodeIS2_EEERKSaIT_E,comdat
	.weak	_ZNSaISt4pairIKPciEEC2ISt13_Rb_tree_nodeIS2_EEERKSaIT_E
	.align	16, 0x90
	.type	_ZNSaISt4pairIKPciEEC2ISt13_Rb_tree_nodeIS2_EEERKSaIT_E,@function
_ZNSaISt4pairIKPciEEC2ISt13_Rb_tree_nodeIS2_EEERKSaIT_E: # @_ZNSaISt4pairIKPciEEC2ISt13_Rb_tree_nodeIS2_EEERKSaIT_E
	.cfi_startproc
# BB#0:
	pushq	%rbp
.Ltmp89:
	.cfi_def_cfa_offset 16
.Ltmp90:
	.cfi_offset %rbp, -16
	movq	%rsp, %rbp
.Ltmp91:
	.cfi_def_cfa_register %rbp
	subq	$16, %rsp
	movq	%rdi, -8(%rbp)
	movq	%rsi, -16(%rbp)
	movq	-8(%rbp), %rdi
	callq	_ZN9__gnu_cxx13new_allocatorISt4pairIKPciEEC2Ev
	addq	$16, %rsp
	popq	%rbp
	retq
.Lfunc_end23:
	.size	_ZNSaISt4pairIKPciEEC2ISt13_Rb_tree_nodeIS2_EEERKSaIT_E, .Lfunc_end23-_ZNSaISt4pairIKPciEEC2ISt13_Rb_tree_nodeIS2_EEERKSaIT_E
	.cfi_endproc

	.section	.text._ZN9__gnu_cxx13new_allocatorISt4pairIKPciEEC2Ev,"axG",@progbits,_ZN9__gnu_cxx13new_allocatorISt4pairIKPciEEC2Ev,comdat
	.weak	_ZN9__gnu_cxx13new_allocatorISt4pairIKPciEEC2Ev
	.align	16, 0x90
	.type	_ZN9__gnu_cxx13new_allocatorISt4pairIKPciEEC2Ev,@function
_ZN9__gnu_cxx13new_allocatorISt4pairIKPciEEC2Ev: # @_ZN9__gnu_cxx13new_allocatorISt4pairIKPciEEC2Ev
	.cfi_startproc
# BB#0:
	pushq	%rbp
.Ltmp92:
	.cfi_def_cfa_offset 16
.Ltmp93:
	.cfi_offset %rbp, -16
	movq	%rsp, %rbp
.Ltmp94:
	.cfi_def_cfa_register %rbp
	movq	%rdi, -8(%rbp)
	popq	%rbp
	retq
.Lfunc_end24:
	.size	_ZN9__gnu_cxx13new_allocatorISt4pairIKPciEEC2Ev, .Lfunc_end24-_ZN9__gnu_cxx13new_allocatorISt4pairIKPciEEC2Ev
	.cfi_endproc

	.section	.text._ZNSt13_Rb_tree_nodeISt4pairIKPciEE9_M_valptrEv,"axG",@progbits,_ZNSt13_Rb_tree_nodeISt4pairIKPciEE9_M_valptrEv,comdat
	.weak	_ZNSt13_Rb_tree_nodeISt4pairIKPciEE9_M_valptrEv
	.align	16, 0x90
	.type	_ZNSt13_Rb_tree_nodeISt4pairIKPciEE9_M_valptrEv,@function
_ZNSt13_Rb_tree_nodeISt4pairIKPciEE9_M_valptrEv: # @_ZNSt13_Rb_tree_nodeISt4pairIKPciEE9_M_valptrEv
	.cfi_startproc
# BB#0:
	pushq	%rbp
.Ltmp95:
	.cfi_def_cfa_offset 16
.Ltmp96:
	.cfi_offset %rbp, -16
	movq	%rsp, %rbp
.Ltmp97:
	.cfi_def_cfa_register %rbp
	subq	$16, %rsp
	movq	%rdi, -8(%rbp)
	addq	$32, %rdi
	callq	_ZSt11__addressofISt4pairIKPciEEPT_RS4_
	addq	$16, %rsp
	popq	%rbp
	retq
.Lfunc_end25:
	.size	_ZNSt13_Rb_tree_nodeISt4pairIKPciEE9_M_valptrEv, .Lfunc_end25-_ZNSt13_Rb_tree_nodeISt4pairIKPciEE9_M_valptrEv
	.cfi_endproc

	.section	.text._ZSt11__addressofISt4pairIKPciEEPT_RS4_,"axG",@progbits,_ZSt11__addressofISt4pairIKPciEEPT_RS4_,comdat
	.weak	_ZSt11__addressofISt4pairIKPciEEPT_RS4_
	.align	16, 0x90
	.type	_ZSt11__addressofISt4pairIKPciEEPT_RS4_,@function
_ZSt11__addressofISt4pairIKPciEEPT_RS4_: # @_ZSt11__addressofISt4pairIKPciEEPT_RS4_
	.cfi_startproc
# BB#0:
	pushq	%rbp
.Ltmp98:
	.cfi_def_cfa_offset 16
.Ltmp99:
	.cfi_offset %rbp, -16
	movq	%rsp, %rbp
.Ltmp100:
	.cfi_def_cfa_register %rbp
	movq	%rdi, -8(%rbp)
	movq	%rdi, %rax
	popq	%rbp
	retq
.Lfunc_end26:
	.size	_ZSt11__addressofISt4pairIKPciEEPT_RS4_, .Lfunc_end26-_ZSt11__addressofISt4pairIKPciEEPT_RS4_
	.cfi_endproc

	.section	.text._ZN9__gnu_cxx13new_allocatorISt4pairIKPciEE7destroyEPS4_,"axG",@progbits,_ZN9__gnu_cxx13new_allocatorISt4pairIKPciEE7destroyEPS4_,comdat
	.weak	_ZN9__gnu_cxx13new_allocatorISt4pairIKPciEE7destroyEPS4_
	.align	16, 0x90
	.type	_ZN9__gnu_cxx13new_allocatorISt4pairIKPciEE7destroyEPS4_,@function
_ZN9__gnu_cxx13new_allocatorISt4pairIKPciEE7destroyEPS4_: # @_ZN9__gnu_cxx13new_allocatorISt4pairIKPciEE7destroyEPS4_
	.cfi_startproc
# BB#0:
	pushq	%rbp
.Ltmp101:
	.cfi_def_cfa_offset 16
.Ltmp102:
	.cfi_offset %rbp, -16
	movq	%rsp, %rbp
.Ltmp103:
	.cfi_def_cfa_register %rbp
	movq	%rdi, -8(%rbp)
	movq	%rsi, -16(%rbp)
	popq	%rbp
	retq
.Lfunc_end27:
	.size	_ZN9__gnu_cxx13new_allocatorISt4pairIKPciEE7destroyEPS4_, .Lfunc_end27-_ZN9__gnu_cxx13new_allocatorISt4pairIKPciEE7destroyEPS4_
	.cfi_endproc

	.section	.text._ZNSaISt4pairIKPciEED2Ev,"axG",@progbits,_ZNSaISt4pairIKPciEED2Ev,comdat
	.weak	_ZNSaISt4pairIKPciEED2Ev
	.align	16, 0x90
	.type	_ZNSaISt4pairIKPciEED2Ev,@function
_ZNSaISt4pairIKPciEED2Ev:               # @_ZNSaISt4pairIKPciEED2Ev
	.cfi_startproc
# BB#0:
	pushq	%rbp
.Ltmp104:
	.cfi_def_cfa_offset 16
.Ltmp105:
	.cfi_offset %rbp, -16
	movq	%rsp, %rbp
.Ltmp106:
	.cfi_def_cfa_register %rbp
	subq	$16, %rsp
	movq	%rdi, -8(%rbp)
	callq	_ZN9__gnu_cxx13new_allocatorISt4pairIKPciEED2Ev
	addq	$16, %rsp
	popq	%rbp
	retq
.Lfunc_end28:
	.size	_ZNSaISt4pairIKPciEED2Ev, .Lfunc_end28-_ZNSaISt4pairIKPciEED2Ev
	.cfi_endproc

	.section	.text._ZN9__gnu_cxx13new_allocatorISt4pairIKPciEED2Ev,"axG",@progbits,_ZN9__gnu_cxx13new_allocatorISt4pairIKPciEED2Ev,comdat
	.weak	_ZN9__gnu_cxx13new_allocatorISt4pairIKPciEED2Ev
	.align	16, 0x90
	.type	_ZN9__gnu_cxx13new_allocatorISt4pairIKPciEED2Ev,@function
_ZN9__gnu_cxx13new_allocatorISt4pairIKPciEED2Ev: # @_ZN9__gnu_cxx13new_allocatorISt4pairIKPciEED2Ev
	.cfi_startproc
# BB#0:
	pushq	%rbp
.Ltmp107:
	.cfi_def_cfa_offset 16
.Ltmp108:
	.cfi_offset %rbp, -16
	movq	%rsp, %rbp
.Ltmp109:
	.cfi_def_cfa_register %rbp
	movq	%rdi, -8(%rbp)
	popq	%rbp
	retq
.Lfunc_end29:
	.size	_ZN9__gnu_cxx13new_allocatorISt4pairIKPciEED2Ev, .Lfunc_end29-_ZN9__gnu_cxx13new_allocatorISt4pairIKPciEED2Ev
	.cfi_endproc

	.section	.text._ZNSt8_Rb_treeIPcSt4pairIKS0_iESt10_Select1stIS3_ESt4lessIS0_ESaIS3_EE11_M_put_nodeEPSt13_Rb_tree_nodeIS3_E,"axG",@progbits,_ZNSt8_Rb_treeIPcSt4pairIKS0_iESt10_Select1stIS3_ESt4lessIS0_ESaIS3_EE11_M_put_nodeEPSt13_Rb_tree_nodeIS3_E,comdat
	.weak	_ZNSt8_Rb_treeIPcSt4pairIKS0_iESt10_Select1stIS3_ESt4lessIS0_ESaIS3_EE11_M_put_nodeEPSt13_Rb_tree_nodeIS3_E
	.align	16, 0x90
	.type	_ZNSt8_Rb_treeIPcSt4pairIKS0_iESt10_Select1stIS3_ESt4lessIS0_ESaIS3_EE11_M_put_nodeEPSt13_Rb_tree_nodeIS3_E,@function
_ZNSt8_Rb_treeIPcSt4pairIKS0_iESt10_Select1stIS3_ESt4lessIS0_ESaIS3_EE11_M_put_nodeEPSt13_Rb_tree_nodeIS3_E: # @_ZNSt8_Rb_treeIPcSt4pairIKS0_iESt10_Select1stIS3_ESt4lessIS0_ESaIS3_EE11_M_put_nodeEPSt13_Rb_tree_nodeIS3_E
	.cfi_startproc
# BB#0:
	pushq	%rbp
.Ltmp110:
	.cfi_def_cfa_offset 16
.Ltmp111:
	.cfi_offset %rbp, -16
	movq	%rsp, %rbp
.Ltmp112:
	.cfi_def_cfa_register %rbp
	subq	$16, %rsp
	movq	%rdi, -8(%rbp)
	movq	%rsi, -16(%rbp)
	movq	-8(%rbp), %rdi
	callq	_ZNSt8_Rb_treeIPcSt4pairIKS0_iESt10_Select1stIS3_ESt4lessIS0_ESaIS3_EE21_M_get_Node_allocatorEv
	movq	-16(%rbp), %rsi
	movl	$1, %edx
	movq	%rax, %rdi
	callq	_ZN9__gnu_cxx14__alloc_traitsISaISt13_Rb_tree_nodeISt4pairIKPciEEEE10deallocateERS7_PS6_m
	addq	$16, %rsp
	popq	%rbp
	retq
.Lfunc_end30:
	.size	_ZNSt8_Rb_treeIPcSt4pairIKS0_iESt10_Select1stIS3_ESt4lessIS0_ESaIS3_EE11_M_put_nodeEPSt13_Rb_tree_nodeIS3_E, .Lfunc_end30-_ZNSt8_Rb_treeIPcSt4pairIKS0_iESt10_Select1stIS3_ESt4lessIS0_ESaIS3_EE11_M_put_nodeEPSt13_Rb_tree_nodeIS3_E
	.cfi_endproc

	.section	.text._ZNSt8_Rb_treeIPcSt4pairIKS0_iESt10_Select1stIS3_ESt4lessIS0_ESaIS3_EE21_M_get_Node_allocatorEv,"axG",@progbits,_ZNSt8_Rb_treeIPcSt4pairIKS0_iESt10_Select1stIS3_ESt4lessIS0_ESaIS3_EE21_M_get_Node_allocatorEv,comdat
	.weak	_ZNSt8_Rb_treeIPcSt4pairIKS0_iESt10_Select1stIS3_ESt4lessIS0_ESaIS3_EE21_M_get_Node_allocatorEv
	.align	16, 0x90
	.type	_ZNSt8_Rb_treeIPcSt4pairIKS0_iESt10_Select1stIS3_ESt4lessIS0_ESaIS3_EE21_M_get_Node_allocatorEv,@function
_ZNSt8_Rb_treeIPcSt4pairIKS0_iESt10_Select1stIS3_ESt4lessIS0_ESaIS3_EE21_M_get_Node_allocatorEv: # @_ZNSt8_Rb_treeIPcSt4pairIKS0_iESt10_Select1stIS3_ESt4lessIS0_ESaIS3_EE21_M_get_Node_allocatorEv
	.cfi_startproc
# BB#0:
	pushq	%rbp
.Ltmp113:
	.cfi_def_cfa_offset 16
.Ltmp114:
	.cfi_offset %rbp, -16
	movq	%rsp, %rbp
.Ltmp115:
	.cfi_def_cfa_register %rbp
	movq	%rdi, -8(%rbp)
	movq	%rdi, %rax
	popq	%rbp
	retq
.Lfunc_end31:
	.size	_ZNSt8_Rb_treeIPcSt4pairIKS0_iESt10_Select1stIS3_ESt4lessIS0_ESaIS3_EE21_M_get_Node_allocatorEv, .Lfunc_end31-_ZNSt8_Rb_treeIPcSt4pairIKS0_iESt10_Select1stIS3_ESt4lessIS0_ESaIS3_EE21_M_get_Node_allocatorEv
	.cfi_endproc

	.section	.text._ZN9__gnu_cxx14__alloc_traitsISaISt13_Rb_tree_nodeISt4pairIKPciEEEE10deallocateERS7_PS6_m,"axG",@progbits,_ZN9__gnu_cxx14__alloc_traitsISaISt13_Rb_tree_nodeISt4pairIKPciEEEE10deallocateERS7_PS6_m,comdat
	.weak	_ZN9__gnu_cxx14__alloc_traitsISaISt13_Rb_tree_nodeISt4pairIKPciEEEE10deallocateERS7_PS6_m
	.align	16, 0x90
	.type	_ZN9__gnu_cxx14__alloc_traitsISaISt13_Rb_tree_nodeISt4pairIKPciEEEE10deallocateERS7_PS6_m,@function
_ZN9__gnu_cxx14__alloc_traitsISaISt13_Rb_tree_nodeISt4pairIKPciEEEE10deallocateERS7_PS6_m: # @_ZN9__gnu_cxx14__alloc_traitsISaISt13_Rb_tree_nodeISt4pairIKPciEEEE10deallocateERS7_PS6_m
	.cfi_startproc
# BB#0:
	pushq	%rbp
.Ltmp116:
	.cfi_def_cfa_offset 16
.Ltmp117:
	.cfi_offset %rbp, -16
	movq	%rsp, %rbp
.Ltmp118:
	.cfi_def_cfa_register %rbp
	subq	$32, %rsp
	movq	%rdi, -8(%rbp)
	movq	%rsi, -16(%rbp)
	movq	%rdx, -24(%rbp)
	movq	-8(%rbp), %rdi
	movq	-16(%rbp), %rsi
	callq	_ZN9__gnu_cxx13new_allocatorISt13_Rb_tree_nodeISt4pairIKPciEEE10deallocateEPS6_m
	addq	$32, %rsp
	popq	%rbp
	retq
.Lfunc_end32:
	.size	_ZN9__gnu_cxx14__alloc_traitsISaISt13_Rb_tree_nodeISt4pairIKPciEEEE10deallocateERS7_PS6_m, .Lfunc_end32-_ZN9__gnu_cxx14__alloc_traitsISaISt13_Rb_tree_nodeISt4pairIKPciEEEE10deallocateERS7_PS6_m
	.cfi_endproc

	.section	.text._ZN9__gnu_cxx13new_allocatorISt13_Rb_tree_nodeISt4pairIKPciEEE10deallocateEPS6_m,"axG",@progbits,_ZN9__gnu_cxx13new_allocatorISt13_Rb_tree_nodeISt4pairIKPciEEE10deallocateEPS6_m,comdat
	.weak	_ZN9__gnu_cxx13new_allocatorISt13_Rb_tree_nodeISt4pairIKPciEEE10deallocateEPS6_m
	.align	16, 0x90
	.type	_ZN9__gnu_cxx13new_allocatorISt13_Rb_tree_nodeISt4pairIKPciEEE10deallocateEPS6_m,@function
_ZN9__gnu_cxx13new_allocatorISt13_Rb_tree_nodeISt4pairIKPciEEE10deallocateEPS6_m: # @_ZN9__gnu_cxx13new_allocatorISt13_Rb_tree_nodeISt4pairIKPciEEE10deallocateEPS6_m
	.cfi_startproc
# BB#0:
	pushq	%rbp
.Ltmp119:
	.cfi_def_cfa_offset 16
.Ltmp120:
	.cfi_offset %rbp, -16
	movq	%rsp, %rbp
.Ltmp121:
	.cfi_def_cfa_register %rbp
	subq	$32, %rsp
	movq	%rdi, -8(%rbp)
	movq	%rsi, -16(%rbp)
	movq	%rdx, -24(%rbp)
	movq	-16(%rbp), %rdi
	callq	_ZdlPv
	addq	$32, %rsp
	popq	%rbp
	retq
.Lfunc_end33:
	.size	_ZN9__gnu_cxx13new_allocatorISt13_Rb_tree_nodeISt4pairIKPciEEE10deallocateEPS6_m, .Lfunc_end33-_ZN9__gnu_cxx13new_allocatorISt13_Rb_tree_nodeISt4pairIKPciEEE10deallocateEPS6_m
	.cfi_endproc

	.section	.text._ZNSt8_Rb_treeIPcSt4pairIKS0_iESt10_Select1stIS3_ESt4lessIS0_ESaIS3_EE13_Rb_tree_implIS7_Lb0EED2Ev,"axG",@progbits,_ZNSt8_Rb_treeIPcSt4pairIKS0_iESt10_Select1stIS3_ESt4lessIS0_ESaIS3_EE13_Rb_tree_implIS7_Lb0EED2Ev,comdat
	.weak	_ZNSt8_Rb_treeIPcSt4pairIKS0_iESt10_Select1stIS3_ESt4lessIS0_ESaIS3_EE13_Rb_tree_implIS7_Lb0EED2Ev
	.align	16, 0x90
	.type	_ZNSt8_Rb_treeIPcSt4pairIKS0_iESt10_Select1stIS3_ESt4lessIS0_ESaIS3_EE13_Rb_tree_implIS7_Lb0EED2Ev,@function
_ZNSt8_Rb_treeIPcSt4pairIKS0_iESt10_Select1stIS3_ESt4lessIS0_ESaIS3_EE13_Rb_tree_implIS7_Lb0EED2Ev: # @_ZNSt8_Rb_treeIPcSt4pairIKS0_iESt10_Select1stIS3_ESt4lessIS0_ESaIS3_EE13_Rb_tree_implIS7_Lb0EED2Ev
	.cfi_startproc
# BB#0:
	pushq	%rbp
.Ltmp122:
	.cfi_def_cfa_offset 16
.Ltmp123:
	.cfi_offset %rbp, -16
	movq	%rsp, %rbp
.Ltmp124:
	.cfi_def_cfa_register %rbp
	subq	$16, %rsp
	movq	%rdi, -8(%rbp)
	callq	_ZNSaISt13_Rb_tree_nodeISt4pairIKPciEEED2Ev
	addq	$16, %rsp
	popq	%rbp
	retq
.Lfunc_end34:
	.size	_ZNSt8_Rb_treeIPcSt4pairIKS0_iESt10_Select1stIS3_ESt4lessIS0_ESaIS3_EE13_Rb_tree_implIS7_Lb0EED2Ev, .Lfunc_end34-_ZNSt8_Rb_treeIPcSt4pairIKS0_iESt10_Select1stIS3_ESt4lessIS0_ESaIS3_EE13_Rb_tree_implIS7_Lb0EED2Ev
	.cfi_endproc

	.text
	.globl	print
	.align	16, 0x90
	.type	print,@function
print:                                  # @print
	.cfi_startproc
# BB#0:
	pushq	%rbp
.Ltmp125:
	.cfi_def_cfa_offset 16
.Ltmp126:
	.cfi_offset %rbp, -16
	movq	%rsp, %rbp
.Ltmp127:
	.cfi_def_cfa_register %rbp
	pushq	%r15
	pushq	%r14
	pushq	%rbx
	subq	$24, %rsp
.Ltmp128:
	.cfi_offset %rbx, -40
.Ltmp129:
	.cfi_offset %r14, -32
.Ltmp130:
	.cfi_offset %r15, -24
	movl	$instmapper, %edi
	callq	_ZNSt3mapIPciSt4lessIS0_ESaISt4pairIKS0_iEEE5beginEv
	movq	%rax, -32(%rbp)
	leaq	-32(%rbp), %r15
	leaq	-40(%rbp), %r14
	jmp	.LBB35_1
	.align	16, 0x90
.LBB35_2:                               #   in Loop: Header=BB35_1 Depth=1
	movq	%r15, %rdi
	callq	_ZNKSt17_Rb_tree_iteratorISt4pairIKPciEEptEv
	movq	(%rax), %rbx
	movq	%r15, %rdi
	callq	_ZNKSt17_Rb_tree_iteratorISt4pairIKPciEEptEv
	movl	8(%rax), %edx
	movl	$.L.str, %edi
	xorl	%eax, %eax
	movq	%rbx, %rsi
	callq	printf
	xorl	%esi, %esi
	movq	%r15, %rdi
	callq	_ZNSt17_Rb_tree_iteratorISt4pairIKPciEEppEi
	movq	%rax, -48(%rbp)
.LBB35_1:                               # =>This Inner Loop Header: Depth=1
	movl	$instmapper, %edi
	callq	_ZNSt3mapIPciSt4lessIS0_ESaISt4pairIKS0_iEEE3endEv
	movq	%rax, -40(%rbp)
	movq	%r15, %rdi
	movq	%r14, %rsi
	callq	_ZNKSt17_Rb_tree_iteratorISt4pairIKPciEEneERKS4_
	testb	%al, %al
	jne	.LBB35_2
# BB#3:
	movl	total(%rip), %esi
	movl	$.L.str.2, %edi
	xorl	%eax, %eax
	callq	printf
	addq	$24, %rsp
	popq	%rbx
	popq	%r14
	popq	%r15
	popq	%rbp
	retq
.Lfunc_end35:
	.size	print, .Lfunc_end35-print
	.cfi_endproc

	.section	.text._ZNSt3mapIPciSt4lessIS0_ESaISt4pairIKS0_iEEE5beginEv,"axG",@progbits,_ZNSt3mapIPciSt4lessIS0_ESaISt4pairIKS0_iEEE5beginEv,comdat
	.weak	_ZNSt3mapIPciSt4lessIS0_ESaISt4pairIKS0_iEEE5beginEv
	.align	16, 0x90
	.type	_ZNSt3mapIPciSt4lessIS0_ESaISt4pairIKS0_iEEE5beginEv,@function
_ZNSt3mapIPciSt4lessIS0_ESaISt4pairIKS0_iEEE5beginEv: # @_ZNSt3mapIPciSt4lessIS0_ESaISt4pairIKS0_iEEE5beginEv
	.cfi_startproc
# BB#0:
	pushq	%rbp
.Ltmp131:
	.cfi_def_cfa_offset 16
.Ltmp132:
	.cfi_offset %rbp, -16
	movq	%rsp, %rbp
.Ltmp133:
	.cfi_def_cfa_register %rbp
	subq	$16, %rsp
	movq	%rdi, -16(%rbp)
	callq	_ZNSt8_Rb_treeIPcSt4pairIKS0_iESt10_Select1stIS3_ESt4lessIS0_ESaIS3_EE5beginEv
	movq	%rax, -8(%rbp)
	addq	$16, %rsp
	popq	%rbp
	retq
.Lfunc_end36:
	.size	_ZNSt3mapIPciSt4lessIS0_ESaISt4pairIKS0_iEEE5beginEv, .Lfunc_end36-_ZNSt3mapIPciSt4lessIS0_ESaISt4pairIKS0_iEEE5beginEv
	.cfi_endproc

	.section	.text._ZNSt8_Rb_treeIPcSt4pairIKS0_iESt10_Select1stIS3_ESt4lessIS0_ESaIS3_EE5beginEv,"axG",@progbits,_ZNSt8_Rb_treeIPcSt4pairIKS0_iESt10_Select1stIS3_ESt4lessIS0_ESaIS3_EE5beginEv,comdat
	.weak	_ZNSt8_Rb_treeIPcSt4pairIKS0_iESt10_Select1stIS3_ESt4lessIS0_ESaIS3_EE5beginEv
	.align	16, 0x90
	.type	_ZNSt8_Rb_treeIPcSt4pairIKS0_iESt10_Select1stIS3_ESt4lessIS0_ESaIS3_EE5beginEv,@function
_ZNSt8_Rb_treeIPcSt4pairIKS0_iESt10_Select1stIS3_ESt4lessIS0_ESaIS3_EE5beginEv: # @_ZNSt8_Rb_treeIPcSt4pairIKS0_iESt10_Select1stIS3_ESt4lessIS0_ESaIS3_EE5beginEv
	.cfi_startproc
# BB#0:
	pushq	%rbp
.Ltmp134:
	.cfi_def_cfa_offset 16
.Ltmp135:
	.cfi_offset %rbp, -16
	movq	%rsp, %rbp
.Ltmp136:
	.cfi_def_cfa_register %rbp
	subq	$16, %rsp
	movq	%rdi, -16(%rbp)
	movq	24(%rdi), %rsi
	leaq	-8(%rbp), %rdi
	callq	_ZNSt17_Rb_tree_iteratorISt4pairIKPciEEC2EPSt18_Rb_tree_node_base
	movq	-8(%rbp), %rax
	addq	$16, %rsp
	popq	%rbp
	retq
.Lfunc_end37:
	.size	_ZNSt8_Rb_treeIPcSt4pairIKS0_iESt10_Select1stIS3_ESt4lessIS0_ESaIS3_EE5beginEv, .Lfunc_end37-_ZNSt8_Rb_treeIPcSt4pairIKS0_iESt10_Select1stIS3_ESt4lessIS0_ESaIS3_EE5beginEv
	.cfi_endproc

	.section	.text._ZNSt17_Rb_tree_iteratorISt4pairIKPciEEC2EPSt18_Rb_tree_node_base,"axG",@progbits,_ZNSt17_Rb_tree_iteratorISt4pairIKPciEEC2EPSt18_Rb_tree_node_base,comdat
	.weak	_ZNSt17_Rb_tree_iteratorISt4pairIKPciEEC2EPSt18_Rb_tree_node_base
	.align	16, 0x90
	.type	_ZNSt17_Rb_tree_iteratorISt4pairIKPciEEC2EPSt18_Rb_tree_node_base,@function
_ZNSt17_Rb_tree_iteratorISt4pairIKPciEEC2EPSt18_Rb_tree_node_base: # @_ZNSt17_Rb_tree_iteratorISt4pairIKPciEEC2EPSt18_Rb_tree_node_base
	.cfi_startproc
# BB#0:
	pushq	%rbp
.Ltmp137:
	.cfi_def_cfa_offset 16
.Ltmp138:
	.cfi_offset %rbp, -16
	movq	%rsp, %rbp
.Ltmp139:
	.cfi_def_cfa_register %rbp
	movq	%rdi, -8(%rbp)
	movq	%rsi, -16(%rbp)
	movq	-8(%rbp), %rax
	movq	%rsi, (%rax)
	popq	%rbp
	retq
.Lfunc_end38:
	.size	_ZNSt17_Rb_tree_iteratorISt4pairIKPciEEC2EPSt18_Rb_tree_node_base, .Lfunc_end38-_ZNSt17_Rb_tree_iteratorISt4pairIKPciEEC2EPSt18_Rb_tree_node_base
	.cfi_endproc

	.section	.text._ZNSt3mapIPciSt4lessIS0_ESaISt4pairIKS0_iEEE3endEv,"axG",@progbits,_ZNSt3mapIPciSt4lessIS0_ESaISt4pairIKS0_iEEE3endEv,comdat
	.weak	_ZNSt3mapIPciSt4lessIS0_ESaISt4pairIKS0_iEEE3endEv
	.align	16, 0x90
	.type	_ZNSt3mapIPciSt4lessIS0_ESaISt4pairIKS0_iEEE3endEv,@function
_ZNSt3mapIPciSt4lessIS0_ESaISt4pairIKS0_iEEE3endEv: # @_ZNSt3mapIPciSt4lessIS0_ESaISt4pairIKS0_iEEE3endEv
	.cfi_startproc
# BB#0:
	pushq	%rbp
.Ltmp140:
	.cfi_def_cfa_offset 16
.Ltmp141:
	.cfi_offset %rbp, -16
	movq	%rsp, %rbp
.Ltmp142:
	.cfi_def_cfa_register %rbp
	subq	$16, %rsp
	movq	%rdi, -16(%rbp)
	callq	_ZNSt8_Rb_treeIPcSt4pairIKS0_iESt10_Select1stIS3_ESt4lessIS0_ESaIS3_EE3endEv
	movq	%rax, -8(%rbp)
	addq	$16, %rsp
	popq	%rbp
	retq
.Lfunc_end39:
	.size	_ZNSt3mapIPciSt4lessIS0_ESaISt4pairIKS0_iEEE3endEv, .Lfunc_end39-_ZNSt3mapIPciSt4lessIS0_ESaISt4pairIKS0_iEEE3endEv
	.cfi_endproc

	.section	.text._ZNSt8_Rb_treeIPcSt4pairIKS0_iESt10_Select1stIS3_ESt4lessIS0_ESaIS3_EE3endEv,"axG",@progbits,_ZNSt8_Rb_treeIPcSt4pairIKS0_iESt10_Select1stIS3_ESt4lessIS0_ESaIS3_EE3endEv,comdat
	.weak	_ZNSt8_Rb_treeIPcSt4pairIKS0_iESt10_Select1stIS3_ESt4lessIS0_ESaIS3_EE3endEv
	.align	16, 0x90
	.type	_ZNSt8_Rb_treeIPcSt4pairIKS0_iESt10_Select1stIS3_ESt4lessIS0_ESaIS3_EE3endEv,@function
_ZNSt8_Rb_treeIPcSt4pairIKS0_iESt10_Select1stIS3_ESt4lessIS0_ESaIS3_EE3endEv: # @_ZNSt8_Rb_treeIPcSt4pairIKS0_iESt10_Select1stIS3_ESt4lessIS0_ESaIS3_EE3endEv
	.cfi_startproc
# BB#0:
	pushq	%rbp
.Ltmp143:
	.cfi_def_cfa_offset 16
.Ltmp144:
	.cfi_offset %rbp, -16
	movq	%rsp, %rbp
.Ltmp145:
	.cfi_def_cfa_register %rbp
	subq	$16, %rsp
	movq	%rdi, -16(%rbp)
	leaq	8(%rdi), %rsi
	leaq	-8(%rbp), %rdi
	callq	_ZNSt17_Rb_tree_iteratorISt4pairIKPciEEC2EPSt18_Rb_tree_node_base
	movq	-8(%rbp), %rax
	addq	$16, %rsp
	popq	%rbp
	retq
.Lfunc_end40:
	.size	_ZNSt8_Rb_treeIPcSt4pairIKS0_iESt10_Select1stIS3_ESt4lessIS0_ESaIS3_EE3endEv, .Lfunc_end40-_ZNSt8_Rb_treeIPcSt4pairIKS0_iESt10_Select1stIS3_ESt4lessIS0_ESaIS3_EE3endEv
	.cfi_endproc

	.section	.text._ZNKSt17_Rb_tree_iteratorISt4pairIKPciEEneERKS4_,"axG",@progbits,_ZNKSt17_Rb_tree_iteratorISt4pairIKPciEEneERKS4_,comdat
	.weak	_ZNKSt17_Rb_tree_iteratorISt4pairIKPciEEneERKS4_
	.align	16, 0x90
	.type	_ZNKSt17_Rb_tree_iteratorISt4pairIKPciEEneERKS4_,@function
_ZNKSt17_Rb_tree_iteratorISt4pairIKPciEEneERKS4_: # @_ZNKSt17_Rb_tree_iteratorISt4pairIKPciEEneERKS4_
	.cfi_startproc
# BB#0:
	pushq	%rbp
.Ltmp146:
	.cfi_def_cfa_offset 16
.Ltmp147:
	.cfi_offset %rbp, -16
	movq	%rsp, %rbp
.Ltmp148:
	.cfi_def_cfa_register %rbp
	movq	%rdi, -8(%rbp)
	movq	%rsi, -16(%rbp)
	movq	-8(%rbp), %rax
	movq	(%rax), %rax
	cmpq	(%rsi), %rax
	setne	%al
	popq	%rbp
	retq
.Lfunc_end41:
	.size	_ZNKSt17_Rb_tree_iteratorISt4pairIKPciEEneERKS4_, .Lfunc_end41-_ZNKSt17_Rb_tree_iteratorISt4pairIKPciEEneERKS4_
	.cfi_endproc

	.section	.text._ZNKSt17_Rb_tree_iteratorISt4pairIKPciEEptEv,"axG",@progbits,_ZNKSt17_Rb_tree_iteratorISt4pairIKPciEEptEv,comdat
	.weak	_ZNKSt17_Rb_tree_iteratorISt4pairIKPciEEptEv
	.align	16, 0x90
	.type	_ZNKSt17_Rb_tree_iteratorISt4pairIKPciEEptEv,@function
_ZNKSt17_Rb_tree_iteratorISt4pairIKPciEEptEv: # @_ZNKSt17_Rb_tree_iteratorISt4pairIKPciEEptEv
	.cfi_startproc
# BB#0:
	pushq	%rbp
.Ltmp149:
	.cfi_def_cfa_offset 16
.Ltmp150:
	.cfi_offset %rbp, -16
	movq	%rsp, %rbp
.Ltmp151:
	.cfi_def_cfa_register %rbp
	subq	$16, %rsp
	movq	%rdi, -8(%rbp)
	movq	(%rdi), %rdi
	callq	_ZNSt13_Rb_tree_nodeISt4pairIKPciEE9_M_valptrEv
	addq	$16, %rsp
	popq	%rbp
	retq
.Lfunc_end42:
	.size	_ZNKSt17_Rb_tree_iteratorISt4pairIKPciEEptEv, .Lfunc_end42-_ZNKSt17_Rb_tree_iteratorISt4pairIKPciEEptEv
	.cfi_endproc

	.section	.text._ZNSt17_Rb_tree_iteratorISt4pairIKPciEEppEi,"axG",@progbits,_ZNSt17_Rb_tree_iteratorISt4pairIKPciEEppEi,comdat
	.weak	_ZNSt17_Rb_tree_iteratorISt4pairIKPciEEppEi
	.align	16, 0x90
	.type	_ZNSt17_Rb_tree_iteratorISt4pairIKPciEEppEi,@function
_ZNSt17_Rb_tree_iteratorISt4pairIKPciEEppEi: # @_ZNSt17_Rb_tree_iteratorISt4pairIKPciEEppEi
	.cfi_startproc
# BB#0:
	pushq	%rbp
.Ltmp152:
	.cfi_def_cfa_offset 16
.Ltmp153:
	.cfi_offset %rbp, -16
	movq	%rsp, %rbp
.Ltmp154:
	.cfi_def_cfa_register %rbp
	pushq	%rbx
	subq	$24, %rsp
.Ltmp155:
	.cfi_offset %rbx, -24
	movq	%rdi, -24(%rbp)
	movl	%esi, -28(%rbp)
	movq	-24(%rbp), %rbx
	movq	(%rbx), %rax
	movq	%rax, -16(%rbp)
	movq	(%rbx), %rdi
	callq	_ZSt18_Rb_tree_incrementPSt18_Rb_tree_node_base
	movq	%rax, (%rbx)
	movq	-16(%rbp), %rax
	addq	$24, %rsp
	popq	%rbx
	popq	%rbp
	retq
.Lfunc_end43:
	.size	_ZNSt17_Rb_tree_iteratorISt4pairIKPciEEppEi, .Lfunc_end43-_ZNSt17_Rb_tree_iteratorISt4pairIKPciEEppEi
	.cfi_endproc

	.text
	.globl	count
	.align	16, 0x90
	.type	count,@function
count:                                  # @count
	.cfi_startproc
# BB#0:
	pushq	%rbp
.Ltmp156:
	.cfi_def_cfa_offset 16
.Ltmp157:
	.cfi_offset %rbp, -16
	movq	%rsp, %rbp
.Ltmp158:
	.cfi_def_cfa_register %rbp
	pushq	%r14
	pushq	%rbx
	subq	$32, %rsp
.Ltmp159:
	.cfi_offset %rbx, -32
.Ltmp160:
	.cfi_offset %r14, -24
	movq	%rdi, -24(%rbp)
	movq	%rdi, -32(%rbp)
	leaq	-32(%rbp), %r14
	movl	$instmapper, %edi
	movq	%r14, %rsi
	callq	_ZNSt3mapIPciSt4lessIS0_ESaISt4pairIKS0_iEEEixERS4_
	movl	(%rax), %ebx
	movl	%ebx, -36(%rbp)
	incl	%ebx
	movl	$instmapper, %edi
	movq	%r14, %rsi
	callq	_ZNSt3mapIPciSt4lessIS0_ESaISt4pairIKS0_iEEEixERS4_
	movl	%ebx, (%rax)
	incl	total(%rip)
	addq	$32, %rsp
	popq	%rbx
	popq	%r14
	popq	%rbp
	retq
.Lfunc_end44:
	.size	count, .Lfunc_end44-count
	.cfi_endproc

	.section	.text._ZNSt3mapIPciSt4lessIS0_ESaISt4pairIKS0_iEEEixERS4_,"axG",@progbits,_ZNSt3mapIPciSt4lessIS0_ESaISt4pairIKS0_iEEEixERS4_,comdat
	.weak	_ZNSt3mapIPciSt4lessIS0_ESaISt4pairIKS0_iEEEixERS4_
	.align	16, 0x90
	.type	_ZNSt3mapIPciSt4lessIS0_ESaISt4pairIKS0_iEEEixERS4_,@function
_ZNSt3mapIPciSt4lessIS0_ESaISt4pairIKS0_iEEEixERS4_: # @_ZNSt3mapIPciSt4lessIS0_ESaISt4pairIKS0_iEEEixERS4_
	.cfi_startproc
# BB#0:
	pushq	%rbp
.Ltmp161:
	.cfi_def_cfa_offset 16
.Ltmp162:
	.cfi_offset %rbp, -16
	movq	%rsp, %rbp
.Ltmp163:
	.cfi_def_cfa_register %rbp
	pushq	%r14
	pushq	%rbx
	subq	$80, %rsp
.Ltmp164:
	.cfi_offset %rbx, -32
.Ltmp165:
	.cfi_offset %r14, -24
	movq	%rdi, -24(%rbp)
	movq	%rsi, -32(%rbp)
	movq	-24(%rbp), %rbx
	movq	%rbx, %rdi
	callq	_ZNSt3mapIPciSt4lessIS0_ESaISt4pairIKS0_iEEE11lower_boundERS4_
	movq	%rax, -40(%rbp)
	movq	%rbx, %rdi
	callq	_ZNSt3mapIPciSt4lessIS0_ESaISt4pairIKS0_iEEE3endEv
	movq	%rax, -48(%rbp)
	leaq	-40(%rbp), %rdi
	leaq	-48(%rbp), %rsi
	callq	_ZNKSt17_Rb_tree_iteratorISt4pairIKPciEEeqERKS4_
	testb	%al, %al
	jne	.LBB45_2
# BB#1:
	movq	%rbx, %rdi
	callq	_ZNKSt3mapIPciSt4lessIS0_ESaISt4pairIKS0_iEEE8key_compEv
	movq	-32(%rbp), %r14
	leaq	-40(%rbp), %rdi
	callq	_ZNKSt17_Rb_tree_iteratorISt4pairIKPciEEdeEv
	leaq	-56(%rbp), %rdi
	movq	%r14, %rsi
	movq	%rax, %rdx
	callq	_ZNKSt4lessIPcEclERKS0_S3_
	testb	%al, %al
	je	.LBB45_3
.LBB45_2:
	movq	-40(%rbp), %rax
	movq	%rax, -72(%rbp)
	movq	-32(%rbp), %rsi
	movl	$0, -92(%rbp)
	leaq	-88(%rbp), %r14
	leaq	-92(%rbp), %rdx
	movq	%r14, %rdi
	callq	_ZNSt4pairIKPciEC2ERS1_RKi
	movq	-72(%rbp), %rsi
	movq	%rbx, %rdi
	movq	%r14, %rdx
	callq	_ZNSt3mapIPciSt4lessIS0_ESaISt4pairIKS0_iEEE6insertESt17_Rb_tree_iteratorIS5_ERKS5_
	movq	%rax, -64(%rbp)
	movq	%rax, -40(%rbp)
.LBB45_3:
	leaq	-40(%rbp), %rdi
	callq	_ZNKSt17_Rb_tree_iteratorISt4pairIKPciEEdeEv
	addq	$8, %rax
	addq	$80, %rsp
	popq	%rbx
	popq	%r14
	popq	%rbp
	retq
.Lfunc_end45:
	.size	_ZNSt3mapIPciSt4lessIS0_ESaISt4pairIKS0_iEEEixERS4_, .Lfunc_end45-_ZNSt3mapIPciSt4lessIS0_ESaISt4pairIKS0_iEEEixERS4_
	.cfi_endproc

	.section	.text._ZNSt3mapIPciSt4lessIS0_ESaISt4pairIKS0_iEEE11lower_boundERS4_,"axG",@progbits,_ZNSt3mapIPciSt4lessIS0_ESaISt4pairIKS0_iEEE11lower_boundERS4_,comdat
	.weak	_ZNSt3mapIPciSt4lessIS0_ESaISt4pairIKS0_iEEE11lower_boundERS4_
	.align	16, 0x90
	.type	_ZNSt3mapIPciSt4lessIS0_ESaISt4pairIKS0_iEEE11lower_boundERS4_,@function
_ZNSt3mapIPciSt4lessIS0_ESaISt4pairIKS0_iEEE11lower_boundERS4_: # @_ZNSt3mapIPciSt4lessIS0_ESaISt4pairIKS0_iEEE11lower_boundERS4_
	.cfi_startproc
# BB#0:
	pushq	%rbp
.Ltmp166:
	.cfi_def_cfa_offset 16
.Ltmp167:
	.cfi_offset %rbp, -16
	movq	%rsp, %rbp
.Ltmp168:
	.cfi_def_cfa_register %rbp
	subq	$32, %rsp
	movq	%rdi, -16(%rbp)
	movq	%rsi, -24(%rbp)
	movq	-16(%rbp), %rdi
	callq	_ZNSt8_Rb_treeIPcSt4pairIKS0_iESt10_Select1stIS3_ESt4lessIS0_ESaIS3_EE11lower_boundERS2_
	movq	%rax, -8(%rbp)
	addq	$32, %rsp
	popq	%rbp
	retq
.Lfunc_end46:
	.size	_ZNSt3mapIPciSt4lessIS0_ESaISt4pairIKS0_iEEE11lower_boundERS4_, .Lfunc_end46-_ZNSt3mapIPciSt4lessIS0_ESaISt4pairIKS0_iEEE11lower_boundERS4_
	.cfi_endproc

	.section	.text._ZNSt8_Rb_treeIPcSt4pairIKS0_iESt10_Select1stIS3_ESt4lessIS0_ESaIS3_EE11lower_boundERS2_,"axG",@progbits,_ZNSt8_Rb_treeIPcSt4pairIKS0_iESt10_Select1stIS3_ESt4lessIS0_ESaIS3_EE11lower_boundERS2_,comdat
	.weak	_ZNSt8_Rb_treeIPcSt4pairIKS0_iESt10_Select1stIS3_ESt4lessIS0_ESaIS3_EE11lower_boundERS2_
	.align	16, 0x90
	.type	_ZNSt8_Rb_treeIPcSt4pairIKS0_iESt10_Select1stIS3_ESt4lessIS0_ESaIS3_EE11lower_boundERS2_,@function
_ZNSt8_Rb_treeIPcSt4pairIKS0_iESt10_Select1stIS3_ESt4lessIS0_ESaIS3_EE11lower_boundERS2_: # @_ZNSt8_Rb_treeIPcSt4pairIKS0_iESt10_Select1stIS3_ESt4lessIS0_ESaIS3_EE11lower_boundERS2_
	.cfi_startproc
# BB#0:
	pushq	%rbp
.Ltmp169:
	.cfi_def_cfa_offset 16
.Ltmp170:
	.cfi_offset %rbp, -16
	movq	%rsp, %rbp
.Ltmp171:
	.cfi_def_cfa_register %rbp
	pushq	%r14
	pushq	%rbx
	subq	$32, %rsp
.Ltmp172:
	.cfi_offset %rbx, -32
.Ltmp173:
	.cfi_offset %r14, -24
	movq	%rdi, -32(%rbp)
	movq	%rsi, -40(%rbp)
	movq	-32(%rbp), %rbx
	movq	%rbx, %rdi
	callq	_ZNSt8_Rb_treeIPcSt4pairIKS0_iESt10_Select1stIS3_ESt4lessIS0_ESaIS3_EE8_M_beginEv
	movq	%rax, %r14
	movq	%rbx, %rdi
	callq	_ZNSt8_Rb_treeIPcSt4pairIKS0_iESt10_Select1stIS3_ESt4lessIS0_ESaIS3_EE6_M_endEv
	movq	-40(%rbp), %rcx
	movq	%rbx, %rdi
	movq	%r14, %rsi
	movq	%rax, %rdx
	callq	_ZNSt8_Rb_treeIPcSt4pairIKS0_iESt10_Select1stIS3_ESt4lessIS0_ESaIS3_EE14_M_lower_boundEPSt13_Rb_tree_nodeIS3_EPSt18_Rb_tree_node_baseRS2_
	movq	%rax, -24(%rbp)
	addq	$32, %rsp
	popq	%rbx
	popq	%r14
	popq	%rbp
	retq
.Lfunc_end47:
	.size	_ZNSt8_Rb_treeIPcSt4pairIKS0_iESt10_Select1stIS3_ESt4lessIS0_ESaIS3_EE11lower_boundERS2_, .Lfunc_end47-_ZNSt8_Rb_treeIPcSt4pairIKS0_iESt10_Select1stIS3_ESt4lessIS0_ESaIS3_EE11lower_boundERS2_
	.cfi_endproc

	.section	.text._ZNSt8_Rb_treeIPcSt4pairIKS0_iESt10_Select1stIS3_ESt4lessIS0_ESaIS3_EE6_M_endEv,"axG",@progbits,_ZNSt8_Rb_treeIPcSt4pairIKS0_iESt10_Select1stIS3_ESt4lessIS0_ESaIS3_EE6_M_endEv,comdat
	.weak	_ZNSt8_Rb_treeIPcSt4pairIKS0_iESt10_Select1stIS3_ESt4lessIS0_ESaIS3_EE6_M_endEv
	.align	16, 0x90
	.type	_ZNSt8_Rb_treeIPcSt4pairIKS0_iESt10_Select1stIS3_ESt4lessIS0_ESaIS3_EE6_M_endEv,@function
_ZNSt8_Rb_treeIPcSt4pairIKS0_iESt10_Select1stIS3_ESt4lessIS0_ESaIS3_EE6_M_endEv: # @_ZNSt8_Rb_treeIPcSt4pairIKS0_iESt10_Select1stIS3_ESt4lessIS0_ESaIS3_EE6_M_endEv
	.cfi_startproc
# BB#0:
	pushq	%rbp
.Ltmp174:
	.cfi_def_cfa_offset 16
.Ltmp175:
	.cfi_offset %rbp, -16
	movq	%rsp, %rbp
.Ltmp176:
	.cfi_def_cfa_register %rbp
	movq	%rdi, -8(%rbp)
	leaq	8(%rdi), %rax
	popq	%rbp
	retq
.Lfunc_end48:
	.size	_ZNSt8_Rb_treeIPcSt4pairIKS0_iESt10_Select1stIS3_ESt4lessIS0_ESaIS3_EE6_M_endEv, .Lfunc_end48-_ZNSt8_Rb_treeIPcSt4pairIKS0_iESt10_Select1stIS3_ESt4lessIS0_ESaIS3_EE6_M_endEv
	.cfi_endproc

	.section	.text._ZNSt8_Rb_treeIPcSt4pairIKS0_iESt10_Select1stIS3_ESt4lessIS0_ESaIS3_EE14_M_lower_boundEPSt13_Rb_tree_nodeIS3_EPSt18_Rb_tree_node_baseRS2_,"axG",@progbits,_ZNSt8_Rb_treeIPcSt4pairIKS0_iESt10_Select1stIS3_ESt4lessIS0_ESaIS3_EE14_M_lower_boundEPSt13_Rb_tree_nodeIS3_EPSt18_Rb_tree_node_baseRS2_,comdat
	.weak	_ZNSt8_Rb_treeIPcSt4pairIKS0_iESt10_Select1stIS3_ESt4lessIS0_ESaIS3_EE14_M_lower_boundEPSt13_Rb_tree_nodeIS3_EPSt18_Rb_tree_node_baseRS2_
	.align	16, 0x90
	.type	_ZNSt8_Rb_treeIPcSt4pairIKS0_iESt10_Select1stIS3_ESt4lessIS0_ESaIS3_EE14_M_lower_boundEPSt13_Rb_tree_nodeIS3_EPSt18_Rb_tree_node_baseRS2_,@function
_ZNSt8_Rb_treeIPcSt4pairIKS0_iESt10_Select1stIS3_ESt4lessIS0_ESaIS3_EE14_M_lower_boundEPSt13_Rb_tree_nodeIS3_EPSt18_Rb_tree_node_baseRS2_: # @_ZNSt8_Rb_treeIPcSt4pairIKS0_iESt10_Select1stIS3_ESt4lessIS0_ESaIS3_EE14_M_lower_boundEPSt13_Rb_tree_nodeIS3_EPSt18_Rb_tree_node_baseRS2_
	.cfi_startproc
# BB#0:
	pushq	%rbp
.Ltmp177:
	.cfi_def_cfa_offset 16
.Ltmp178:
	.cfi_offset %rbp, -16
	movq	%rsp, %rbp
.Ltmp179:
	.cfi_def_cfa_register %rbp
	pushq	%rbx
	subq	$40, %rsp
.Ltmp180:
	.cfi_offset %rbx, -24
	movq	%rdi, -24(%rbp)
	movq	%rsi, -32(%rbp)
	movq	%rdx, -40(%rbp)
	movq	%rcx, -48(%rbp)
	movq	-24(%rbp), %rbx
	jmp	.LBB49_1
	.align	16, 0x90
.LBB49_3:                               #   in Loop: Header=BB49_1 Depth=1
	movq	-32(%rbp), %rax
	movq	%rax, -40(%rbp)
	movq	-32(%rbp), %rdi
	callq	_ZNSt8_Rb_treeIPcSt4pairIKS0_iESt10_Select1stIS3_ESt4lessIS0_ESaIS3_EE7_S_leftEPSt18_Rb_tree_node_base
	movq	%rax, -32(%rbp)
.LBB49_1:                               # =>This Inner Loop Header: Depth=1
	cmpq	$0, -32(%rbp)
	je	.LBB49_5
# BB#2:                                 #   in Loop: Header=BB49_1 Depth=1
	movq	-32(%rbp), %rdi
	callq	_ZNSt8_Rb_treeIPcSt4pairIKS0_iESt10_Select1stIS3_ESt4lessIS0_ESaIS3_EE6_S_keyEPKSt13_Rb_tree_nodeIS3_E
	movq	-48(%rbp), %rdx
	movq	%rbx, %rdi
	movq	%rax, %rsi
	callq	_ZNKSt4lessIPcEclERKS0_S3_
	testb	%al, %al
	je	.LBB49_3
# BB#4:                                 #   in Loop: Header=BB49_1 Depth=1
	movq	-32(%rbp), %rdi
	callq	_ZNSt8_Rb_treeIPcSt4pairIKS0_iESt10_Select1stIS3_ESt4lessIS0_ESaIS3_EE8_S_rightEPSt18_Rb_tree_node_base
	movq	%rax, -32(%rbp)
	jmp	.LBB49_1
.LBB49_5:
	movq	-40(%rbp), %rsi
	leaq	-16(%rbp), %rdi
	callq	_ZNSt17_Rb_tree_iteratorISt4pairIKPciEEC2EPSt18_Rb_tree_node_base
	movq	-16(%rbp), %rax
	addq	$40, %rsp
	popq	%rbx
	popq	%rbp
	retq
.Lfunc_end49:
	.size	_ZNSt8_Rb_treeIPcSt4pairIKS0_iESt10_Select1stIS3_ESt4lessIS0_ESaIS3_EE14_M_lower_boundEPSt13_Rb_tree_nodeIS3_EPSt18_Rb_tree_node_baseRS2_, .Lfunc_end49-_ZNSt8_Rb_treeIPcSt4pairIKS0_iESt10_Select1stIS3_ESt4lessIS0_ESaIS3_EE14_M_lower_boundEPSt13_Rb_tree_nodeIS3_EPSt18_Rb_tree_node_baseRS2_
	.cfi_endproc

	.section	.text._ZNSt8_Rb_treeIPcSt4pairIKS0_iESt10_Select1stIS3_ESt4lessIS0_ESaIS3_EE6_S_keyEPKSt13_Rb_tree_nodeIS3_E,"axG",@progbits,_ZNSt8_Rb_treeIPcSt4pairIKS0_iESt10_Select1stIS3_ESt4lessIS0_ESaIS3_EE6_S_keyEPKSt13_Rb_tree_nodeIS3_E,comdat
	.weak	_ZNSt8_Rb_treeIPcSt4pairIKS0_iESt10_Select1stIS3_ESt4lessIS0_ESaIS3_EE6_S_keyEPKSt13_Rb_tree_nodeIS3_E
	.align	16, 0x90
	.type	_ZNSt8_Rb_treeIPcSt4pairIKS0_iESt10_Select1stIS3_ESt4lessIS0_ESaIS3_EE6_S_keyEPKSt13_Rb_tree_nodeIS3_E,@function
_ZNSt8_Rb_treeIPcSt4pairIKS0_iESt10_Select1stIS3_ESt4lessIS0_ESaIS3_EE6_S_keyEPKSt13_Rb_tree_nodeIS3_E: # @_ZNSt8_Rb_treeIPcSt4pairIKS0_iESt10_Select1stIS3_ESt4lessIS0_ESaIS3_EE6_S_keyEPKSt13_Rb_tree_nodeIS3_E
	.cfi_startproc
# BB#0:
	pushq	%rbp
.Ltmp181:
	.cfi_def_cfa_offset 16
.Ltmp182:
	.cfi_offset %rbp, -16
	movq	%rsp, %rbp
.Ltmp183:
	.cfi_def_cfa_register %rbp
	subq	$16, %rsp
	movq	%rdi, -8(%rbp)
	callq	_ZNSt8_Rb_treeIPcSt4pairIKS0_iESt10_Select1stIS3_ESt4lessIS0_ESaIS3_EE8_S_valueEPKSt13_Rb_tree_nodeIS3_E
	leaq	-16(%rbp), %rdi
	movq	%rax, %rsi
	callq	_ZNKSt10_Select1stISt4pairIKPciEEclERKS3_
	addq	$16, %rsp
	popq	%rbp
	retq
.Lfunc_end50:
	.size	_ZNSt8_Rb_treeIPcSt4pairIKS0_iESt10_Select1stIS3_ESt4lessIS0_ESaIS3_EE6_S_keyEPKSt13_Rb_tree_nodeIS3_E, .Lfunc_end50-_ZNSt8_Rb_treeIPcSt4pairIKS0_iESt10_Select1stIS3_ESt4lessIS0_ESaIS3_EE6_S_keyEPKSt13_Rb_tree_nodeIS3_E
	.cfi_endproc

	.section	.text._ZNSt8_Rb_treeIPcSt4pairIKS0_iESt10_Select1stIS3_ESt4lessIS0_ESaIS3_EE8_S_valueEPKSt13_Rb_tree_nodeIS3_E,"axG",@progbits,_ZNSt8_Rb_treeIPcSt4pairIKS0_iESt10_Select1stIS3_ESt4lessIS0_ESaIS3_EE8_S_valueEPKSt13_Rb_tree_nodeIS3_E,comdat
	.weak	_ZNSt8_Rb_treeIPcSt4pairIKS0_iESt10_Select1stIS3_ESt4lessIS0_ESaIS3_EE8_S_valueEPKSt13_Rb_tree_nodeIS3_E
	.align	16, 0x90
	.type	_ZNSt8_Rb_treeIPcSt4pairIKS0_iESt10_Select1stIS3_ESt4lessIS0_ESaIS3_EE8_S_valueEPKSt13_Rb_tree_nodeIS3_E,@function
_ZNSt8_Rb_treeIPcSt4pairIKS0_iESt10_Select1stIS3_ESt4lessIS0_ESaIS3_EE8_S_valueEPKSt13_Rb_tree_nodeIS3_E: # @_ZNSt8_Rb_treeIPcSt4pairIKS0_iESt10_Select1stIS3_ESt4lessIS0_ESaIS3_EE8_S_valueEPKSt13_Rb_tree_nodeIS3_E
	.cfi_startproc
# BB#0:
	pushq	%rbp
.Ltmp184:
	.cfi_def_cfa_offset 16
.Ltmp185:
	.cfi_offset %rbp, -16
	movq	%rsp, %rbp
.Ltmp186:
	.cfi_def_cfa_register %rbp
	subq	$16, %rsp
	movq	%rdi, -8(%rbp)
	callq	_ZNKSt13_Rb_tree_nodeISt4pairIKPciEE9_M_valptrEv
	addq	$16, %rsp
	popq	%rbp
	retq
.Lfunc_end51:
	.size	_ZNSt8_Rb_treeIPcSt4pairIKS0_iESt10_Select1stIS3_ESt4lessIS0_ESaIS3_EE8_S_valueEPKSt13_Rb_tree_nodeIS3_E, .Lfunc_end51-_ZNSt8_Rb_treeIPcSt4pairIKS0_iESt10_Select1stIS3_ESt4lessIS0_ESaIS3_EE8_S_valueEPKSt13_Rb_tree_nodeIS3_E
	.cfi_endproc

	.section	.text._ZNKSt13_Rb_tree_nodeISt4pairIKPciEE9_M_valptrEv,"axG",@progbits,_ZNKSt13_Rb_tree_nodeISt4pairIKPciEE9_M_valptrEv,comdat
	.weak	_ZNKSt13_Rb_tree_nodeISt4pairIKPciEE9_M_valptrEv
	.align	16, 0x90
	.type	_ZNKSt13_Rb_tree_nodeISt4pairIKPciEE9_M_valptrEv,@function
_ZNKSt13_Rb_tree_nodeISt4pairIKPciEE9_M_valptrEv: # @_ZNKSt13_Rb_tree_nodeISt4pairIKPciEE9_M_valptrEv
	.cfi_startproc
# BB#0:
	pushq	%rbp
.Ltmp187:
	.cfi_def_cfa_offset 16
.Ltmp188:
	.cfi_offset %rbp, -16
	movq	%rsp, %rbp
.Ltmp189:
	.cfi_def_cfa_register %rbp
	subq	$16, %rsp
	movq	%rdi, -8(%rbp)
	addq	$32, %rdi
	callq	_ZSt11__addressofIKSt4pairIKPciEEPT_RS5_
	addq	$16, %rsp
	popq	%rbp
	retq
.Lfunc_end52:
	.size	_ZNKSt13_Rb_tree_nodeISt4pairIKPciEE9_M_valptrEv, .Lfunc_end52-_ZNKSt13_Rb_tree_nodeISt4pairIKPciEE9_M_valptrEv
	.cfi_endproc

	.section	.text._ZSt11__addressofIKSt4pairIKPciEEPT_RS5_,"axG",@progbits,_ZSt11__addressofIKSt4pairIKPciEEPT_RS5_,comdat
	.weak	_ZSt11__addressofIKSt4pairIKPciEEPT_RS5_
	.align	16, 0x90
	.type	_ZSt11__addressofIKSt4pairIKPciEEPT_RS5_,@function
_ZSt11__addressofIKSt4pairIKPciEEPT_RS5_: # @_ZSt11__addressofIKSt4pairIKPciEEPT_RS5_
	.cfi_startproc
# BB#0:
	pushq	%rbp
.Ltmp190:
	.cfi_def_cfa_offset 16
.Ltmp191:
	.cfi_offset %rbp, -16
	movq	%rsp, %rbp
.Ltmp192:
	.cfi_def_cfa_register %rbp
	movq	%rdi, -8(%rbp)
	movq	%rdi, %rax
	popq	%rbp
	retq
.Lfunc_end53:
	.size	_ZSt11__addressofIKSt4pairIKPciEEPT_RS5_, .Lfunc_end53-_ZSt11__addressofIKSt4pairIKPciEEPT_RS5_
	.cfi_endproc

	.section	.text._ZNKSt10_Select1stISt4pairIKPciEEclERKS3_,"axG",@progbits,_ZNKSt10_Select1stISt4pairIKPciEEclERKS3_,comdat
	.weak	_ZNKSt10_Select1stISt4pairIKPciEEclERKS3_
	.align	16, 0x90
	.type	_ZNKSt10_Select1stISt4pairIKPciEEclERKS3_,@function
_ZNKSt10_Select1stISt4pairIKPciEEclERKS3_: # @_ZNKSt10_Select1stISt4pairIKPciEEclERKS3_
	.cfi_startproc
# BB#0:
	pushq	%rbp
.Ltmp193:
	.cfi_def_cfa_offset 16
.Ltmp194:
	.cfi_offset %rbp, -16
	movq	%rsp, %rbp
.Ltmp195:
	.cfi_def_cfa_register %rbp
	movq	%rdi, -8(%rbp)
	movq	%rsi, -16(%rbp)
	movq	%rsi, %rax
	popq	%rbp
	retq
.Lfunc_end54:
	.size	_ZNKSt10_Select1stISt4pairIKPciEEclERKS3_, .Lfunc_end54-_ZNKSt10_Select1stISt4pairIKPciEEclERKS3_
	.cfi_endproc

	.section	.text._ZNKSt4lessIPcEclERKS0_S3_,"axG",@progbits,_ZNKSt4lessIPcEclERKS0_S3_,comdat
	.weak	_ZNKSt4lessIPcEclERKS0_S3_
	.align	16, 0x90
	.type	_ZNKSt4lessIPcEclERKS0_S3_,@function
_ZNKSt4lessIPcEclERKS0_S3_:             # @_ZNKSt4lessIPcEclERKS0_S3_
	.cfi_startproc
# BB#0:
	pushq	%rbp
.Ltmp196:
	.cfi_def_cfa_offset 16
.Ltmp197:
	.cfi_offset %rbp, -16
	movq	%rsp, %rbp
.Ltmp198:
	.cfi_def_cfa_register %rbp
	movq	%rdi, -8(%rbp)
	movq	%rsi, -16(%rbp)
	movq	%rdx, -24(%rbp)
	movq	-16(%rbp), %rax
	movq	(%rax), %rax
	cmpq	(%rdx), %rax
	setb	%al
	popq	%rbp
	retq
.Lfunc_end55:
	.size	_ZNKSt4lessIPcEclERKS0_S3_, .Lfunc_end55-_ZNKSt4lessIPcEclERKS0_S3_
	.cfi_endproc

	.section	.text._ZNKSt17_Rb_tree_iteratorISt4pairIKPciEEeqERKS4_,"axG",@progbits,_ZNKSt17_Rb_tree_iteratorISt4pairIKPciEEeqERKS4_,comdat
	.weak	_ZNKSt17_Rb_tree_iteratorISt4pairIKPciEEeqERKS4_
	.align	16, 0x90
	.type	_ZNKSt17_Rb_tree_iteratorISt4pairIKPciEEeqERKS4_,@function
_ZNKSt17_Rb_tree_iteratorISt4pairIKPciEEeqERKS4_: # @_ZNKSt17_Rb_tree_iteratorISt4pairIKPciEEeqERKS4_
	.cfi_startproc
# BB#0:
	pushq	%rbp
.Ltmp199:
	.cfi_def_cfa_offset 16
.Ltmp200:
	.cfi_offset %rbp, -16
	movq	%rsp, %rbp
.Ltmp201:
	.cfi_def_cfa_register %rbp
	movq	%rdi, -8(%rbp)
	movq	%rsi, -16(%rbp)
	movq	-8(%rbp), %rax
	movq	(%rax), %rax
	cmpq	(%rsi), %rax
	sete	%al
	popq	%rbp
	retq
.Lfunc_end56:
	.size	_ZNKSt17_Rb_tree_iteratorISt4pairIKPciEEeqERKS4_, .Lfunc_end56-_ZNKSt17_Rb_tree_iteratorISt4pairIKPciEEeqERKS4_
	.cfi_endproc

	.section	.text._ZNKSt3mapIPciSt4lessIS0_ESaISt4pairIKS0_iEEE8key_compEv,"axG",@progbits,_ZNKSt3mapIPciSt4lessIS0_ESaISt4pairIKS0_iEEE8key_compEv,comdat
	.weak	_ZNKSt3mapIPciSt4lessIS0_ESaISt4pairIKS0_iEEE8key_compEv
	.align	16, 0x90
	.type	_ZNKSt3mapIPciSt4lessIS0_ESaISt4pairIKS0_iEEE8key_compEv,@function
_ZNKSt3mapIPciSt4lessIS0_ESaISt4pairIKS0_iEEE8key_compEv: # @_ZNKSt3mapIPciSt4lessIS0_ESaISt4pairIKS0_iEEE8key_compEv
	.cfi_startproc
# BB#0:
	pushq	%rbp
.Ltmp202:
	.cfi_def_cfa_offset 16
.Ltmp203:
	.cfi_offset %rbp, -16
	movq	%rsp, %rbp
.Ltmp204:
	.cfi_def_cfa_register %rbp
	subq	$32, %rsp
	movq	%rdi, -16(%rbp)
	callq	_ZNKSt8_Rb_treeIPcSt4pairIKS0_iESt10_Select1stIS3_ESt4lessIS0_ESaIS3_EE8key_compEv
	addq	$32, %rsp
	popq	%rbp
	retq
.Lfunc_end57:
	.size	_ZNKSt3mapIPciSt4lessIS0_ESaISt4pairIKS0_iEEE8key_compEv, .Lfunc_end57-_ZNKSt3mapIPciSt4lessIS0_ESaISt4pairIKS0_iEEE8key_compEv
	.cfi_endproc

	.section	.text._ZNKSt8_Rb_treeIPcSt4pairIKS0_iESt10_Select1stIS3_ESt4lessIS0_ESaIS3_EE8key_compEv,"axG",@progbits,_ZNKSt8_Rb_treeIPcSt4pairIKS0_iESt10_Select1stIS3_ESt4lessIS0_ESaIS3_EE8key_compEv,comdat
	.weak	_ZNKSt8_Rb_treeIPcSt4pairIKS0_iESt10_Select1stIS3_ESt4lessIS0_ESaIS3_EE8key_compEv
	.align	16, 0x90
	.type	_ZNKSt8_Rb_treeIPcSt4pairIKS0_iESt10_Select1stIS3_ESt4lessIS0_ESaIS3_EE8key_compEv,@function
_ZNKSt8_Rb_treeIPcSt4pairIKS0_iESt10_Select1stIS3_ESt4lessIS0_ESaIS3_EE8key_compEv: # @_ZNKSt8_Rb_treeIPcSt4pairIKS0_iESt10_Select1stIS3_ESt4lessIS0_ESaIS3_EE8key_compEv
	.cfi_startproc
# BB#0:
	pushq	%rbp
.Ltmp205:
	.cfi_def_cfa_offset 16
.Ltmp206:
	.cfi_offset %rbp, -16
	movq	%rsp, %rbp
.Ltmp207:
	.cfi_def_cfa_register %rbp
	movq	%rdi, -16(%rbp)
	popq	%rbp
	retq
.Lfunc_end58:
	.size	_ZNKSt8_Rb_treeIPcSt4pairIKS0_iESt10_Select1stIS3_ESt4lessIS0_ESaIS3_EE8key_compEv, .Lfunc_end58-_ZNKSt8_Rb_treeIPcSt4pairIKS0_iESt10_Select1stIS3_ESt4lessIS0_ESaIS3_EE8key_compEv
	.cfi_endproc

	.section	.text._ZNKSt17_Rb_tree_iteratorISt4pairIKPciEEdeEv,"axG",@progbits,_ZNKSt17_Rb_tree_iteratorISt4pairIKPciEEdeEv,comdat
	.weak	_ZNKSt17_Rb_tree_iteratorISt4pairIKPciEEdeEv
	.align	16, 0x90
	.type	_ZNKSt17_Rb_tree_iteratorISt4pairIKPciEEdeEv,@function
_ZNKSt17_Rb_tree_iteratorISt4pairIKPciEEdeEv: # @_ZNKSt17_Rb_tree_iteratorISt4pairIKPciEEdeEv
	.cfi_startproc
# BB#0:
	pushq	%rbp
.Ltmp208:
	.cfi_def_cfa_offset 16
.Ltmp209:
	.cfi_offset %rbp, -16
	movq	%rsp, %rbp
.Ltmp210:
	.cfi_def_cfa_register %rbp
	subq	$16, %rsp
	movq	%rdi, -8(%rbp)
	movq	(%rdi), %rdi
	callq	_ZNSt13_Rb_tree_nodeISt4pairIKPciEE9_M_valptrEv
	addq	$16, %rsp
	popq	%rbp
	retq
.Lfunc_end59:
	.size	_ZNKSt17_Rb_tree_iteratorISt4pairIKPciEEdeEv, .Lfunc_end59-_ZNKSt17_Rb_tree_iteratorISt4pairIKPciEEdeEv
	.cfi_endproc

	.section	.text._ZNSt4pairIKPciEC2ERS1_RKi,"axG",@progbits,_ZNSt4pairIKPciEC2ERS1_RKi,comdat
	.weak	_ZNSt4pairIKPciEC2ERS1_RKi
	.align	16, 0x90
	.type	_ZNSt4pairIKPciEC2ERS1_RKi,@function
_ZNSt4pairIKPciEC2ERS1_RKi:             # @_ZNSt4pairIKPciEC2ERS1_RKi
	.cfi_startproc
# BB#0:
	pushq	%rbp
.Ltmp211:
	.cfi_def_cfa_offset 16
.Ltmp212:
	.cfi_offset %rbp, -16
	movq	%rsp, %rbp
.Ltmp213:
	.cfi_def_cfa_register %rbp
	movq	%rdi, -8(%rbp)
	movq	%rsi, -16(%rbp)
	movq	%rdx, -24(%rbp)
	movq	-8(%rbp), %rax
	movq	-16(%rbp), %rcx
	movq	(%rcx), %rcx
	movq	%rcx, (%rax)
	movq	-24(%rbp), %rcx
	movl	(%rcx), %ecx
	movl	%ecx, 8(%rax)
	popq	%rbp
	retq
.Lfunc_end60:
	.size	_ZNSt4pairIKPciEC2ERS1_RKi, .Lfunc_end60-_ZNSt4pairIKPciEC2ERS1_RKi
	.cfi_endproc

	.section	.text._ZNSt3mapIPciSt4lessIS0_ESaISt4pairIKS0_iEEE6insertESt17_Rb_tree_iteratorIS5_ERKS5_,"axG",@progbits,_ZNSt3mapIPciSt4lessIS0_ESaISt4pairIKS0_iEEE6insertESt17_Rb_tree_iteratorIS5_ERKS5_,comdat
	.weak	_ZNSt3mapIPciSt4lessIS0_ESaISt4pairIKS0_iEEE6insertESt17_Rb_tree_iteratorIS5_ERKS5_
	.align	16, 0x90
	.type	_ZNSt3mapIPciSt4lessIS0_ESaISt4pairIKS0_iEEE6insertESt17_Rb_tree_iteratorIS5_ERKS5_,@function
_ZNSt3mapIPciSt4lessIS0_ESaISt4pairIKS0_iEEE6insertESt17_Rb_tree_iteratorIS5_ERKS5_: # @_ZNSt3mapIPciSt4lessIS0_ESaISt4pairIKS0_iEEE6insertESt17_Rb_tree_iteratorIS5_ERKS5_
	.cfi_startproc
# BB#0:
	pushq	%rbp
.Ltmp214:
	.cfi_def_cfa_offset 16
.Ltmp215:
	.cfi_offset %rbp, -16
	movq	%rsp, %rbp
.Ltmp216:
	.cfi_def_cfa_register %rbp
	pushq	%rbx
	subq	$40, %rsp
.Ltmp217:
	.cfi_offset %rbx, -24
	movq	%rsi, -24(%rbp)
	movq	%rdi, -32(%rbp)
	movq	%rdx, -40(%rbp)
	movq	-32(%rbp), %rbx
	leaq	-48(%rbp), %rdi
	leaq	-24(%rbp), %rsi
	callq	_ZNSt23_Rb_tree_const_iteratorISt4pairIKPciEEC2ERKSt17_Rb_tree_iteratorIS3_E
	movq	-40(%rbp), %rdx
	movq	-48(%rbp), %rsi
	movq	%rbx, %rdi
	callq	_ZNSt8_Rb_treeIPcSt4pairIKS0_iESt10_Select1stIS3_ESt4lessIS0_ESaIS3_EE17_M_insert_unique_ESt23_Rb_tree_const_iteratorIS3_ERKS3_
	movq	%rax, -16(%rbp)
	addq	$40, %rsp
	popq	%rbx
	popq	%rbp
	retq
.Lfunc_end61:
	.size	_ZNSt3mapIPciSt4lessIS0_ESaISt4pairIKS0_iEEE6insertESt17_Rb_tree_iteratorIS5_ERKS5_, .Lfunc_end61-_ZNSt3mapIPciSt4lessIS0_ESaISt4pairIKS0_iEEE6insertESt17_Rb_tree_iteratorIS5_ERKS5_
	.cfi_endproc

	.section	.text._ZNSt23_Rb_tree_const_iteratorISt4pairIKPciEEC2ERKSt17_Rb_tree_iteratorIS3_E,"axG",@progbits,_ZNSt23_Rb_tree_const_iteratorISt4pairIKPciEEC2ERKSt17_Rb_tree_iteratorIS3_E,comdat
	.weak	_ZNSt23_Rb_tree_const_iteratorISt4pairIKPciEEC2ERKSt17_Rb_tree_iteratorIS3_E
	.align	16, 0x90
	.type	_ZNSt23_Rb_tree_const_iteratorISt4pairIKPciEEC2ERKSt17_Rb_tree_iteratorIS3_E,@function
_ZNSt23_Rb_tree_const_iteratorISt4pairIKPciEEC2ERKSt17_Rb_tree_iteratorIS3_E: # @_ZNSt23_Rb_tree_const_iteratorISt4pairIKPciEEC2ERKSt17_Rb_tree_iteratorIS3_E
	.cfi_startproc
# BB#0:
	pushq	%rbp
.Ltmp218:
	.cfi_def_cfa_offset 16
.Ltmp219:
	.cfi_offset %rbp, -16
	movq	%rsp, %rbp
.Ltmp220:
	.cfi_def_cfa_register %rbp
	movq	%rdi, -8(%rbp)
	movq	%rsi, -16(%rbp)
	movq	-8(%rbp), %rax
	movq	(%rsi), %rcx
	movq	%rcx, (%rax)
	popq	%rbp
	retq
.Lfunc_end62:
	.size	_ZNSt23_Rb_tree_const_iteratorISt4pairIKPciEEC2ERKSt17_Rb_tree_iteratorIS3_E, .Lfunc_end62-_ZNSt23_Rb_tree_const_iteratorISt4pairIKPciEEC2ERKSt17_Rb_tree_iteratorIS3_E
	.cfi_endproc

	.section	.text._ZNSt8_Rb_treeIPcSt4pairIKS0_iESt10_Select1stIS3_ESt4lessIS0_ESaIS3_EE17_M_insert_unique_ESt23_Rb_tree_const_iteratorIS3_ERKS3_,"axG",@progbits,_ZNSt8_Rb_treeIPcSt4pairIKS0_iESt10_Select1stIS3_ESt4lessIS0_ESaIS3_EE17_M_insert_unique_ESt23_Rb_tree_const_iteratorIS3_ERKS3_,comdat
	.weak	_ZNSt8_Rb_treeIPcSt4pairIKS0_iESt10_Select1stIS3_ESt4lessIS0_ESaIS3_EE17_M_insert_unique_ESt23_Rb_tree_const_iteratorIS3_ERKS3_
	.align	16, 0x90
	.type	_ZNSt8_Rb_treeIPcSt4pairIKS0_iESt10_Select1stIS3_ESt4lessIS0_ESaIS3_EE17_M_insert_unique_ESt23_Rb_tree_const_iteratorIS3_ERKS3_,@function
_ZNSt8_Rb_treeIPcSt4pairIKS0_iESt10_Select1stIS3_ESt4lessIS0_ESaIS3_EE17_M_insert_unique_ESt23_Rb_tree_const_iteratorIS3_ERKS3_: # @_ZNSt8_Rb_treeIPcSt4pairIKS0_iESt10_Select1stIS3_ESt4lessIS0_ESaIS3_EE17_M_insert_unique_ESt23_Rb_tree_const_iteratorIS3_ERKS3_
	.cfi_startproc
# BB#0:
	pushq	%rbp
.Ltmp221:
	.cfi_def_cfa_offset 16
.Ltmp222:
	.cfi_offset %rbp, -16
	movq	%rsp, %rbp
.Ltmp223:
	.cfi_def_cfa_register %rbp
	pushq	%r14
	pushq	%rbx
	subq	$48, %rsp
.Ltmp224:
	.cfi_offset %rbx, -32
.Ltmp225:
	.cfi_offset %r14, -24
	movq	%rsi, -32(%rbp)
	movq	%rdi, -40(%rbp)
	movq	%rdx, -48(%rbp)
	movq	-40(%rbp), %rbx
	leaq	-56(%rbp), %r14
	movq	%r14, %rdi
	movq	%rbx, %rsi
	callq	_ZNSt8_Rb_treeIPcSt4pairIKS0_iESt10_Select1stIS3_ESt4lessIS0_ESaIS3_EE11_Alloc_nodeC2ERS9_
	movq	-32(%rbp), %rsi
	movq	%rsi, -64(%rbp)
	movq	-48(%rbp), %rdx
	movq	%rbx, %rdi
	movq	%r14, %rcx
	callq	_ZNSt8_Rb_treeIPcSt4pairIKS0_iESt10_Select1stIS3_ESt4lessIS0_ESaIS3_EE17_M_insert_unique_INS9_11_Alloc_nodeEEESt17_Rb_tree_iteratorIS3_ESt23_Rb_tree_const_iteratorIS3_ERKS3_RT_
	movq	%rax, -24(%rbp)
	addq	$48, %rsp
	popq	%rbx
	popq	%r14
	popq	%rbp
	retq
.Lfunc_end63:
	.size	_ZNSt8_Rb_treeIPcSt4pairIKS0_iESt10_Select1stIS3_ESt4lessIS0_ESaIS3_EE17_M_insert_unique_ESt23_Rb_tree_const_iteratorIS3_ERKS3_, .Lfunc_end63-_ZNSt8_Rb_treeIPcSt4pairIKS0_iESt10_Select1stIS3_ESt4lessIS0_ESaIS3_EE17_M_insert_unique_ESt23_Rb_tree_const_iteratorIS3_ERKS3_
	.cfi_endproc

	.section	.text._ZNSt8_Rb_treeIPcSt4pairIKS0_iESt10_Select1stIS3_ESt4lessIS0_ESaIS3_EE11_Alloc_nodeC2ERS9_,"axG",@progbits,_ZNSt8_Rb_treeIPcSt4pairIKS0_iESt10_Select1stIS3_ESt4lessIS0_ESaIS3_EE11_Alloc_nodeC2ERS9_,comdat
	.weak	_ZNSt8_Rb_treeIPcSt4pairIKS0_iESt10_Select1stIS3_ESt4lessIS0_ESaIS3_EE11_Alloc_nodeC2ERS9_
	.align	16, 0x90
	.type	_ZNSt8_Rb_treeIPcSt4pairIKS0_iESt10_Select1stIS3_ESt4lessIS0_ESaIS3_EE11_Alloc_nodeC2ERS9_,@function
_ZNSt8_Rb_treeIPcSt4pairIKS0_iESt10_Select1stIS3_ESt4lessIS0_ESaIS3_EE11_Alloc_nodeC2ERS9_: # @_ZNSt8_Rb_treeIPcSt4pairIKS0_iESt10_Select1stIS3_ESt4lessIS0_ESaIS3_EE11_Alloc_nodeC2ERS9_
	.cfi_startproc
# BB#0:
	pushq	%rbp
.Ltmp226:
	.cfi_def_cfa_offset 16
.Ltmp227:
	.cfi_offset %rbp, -16
	movq	%rsp, %rbp
.Ltmp228:
	.cfi_def_cfa_register %rbp
	movq	%rdi, -8(%rbp)
	movq	%rsi, -16(%rbp)
	movq	-8(%rbp), %rax
	movq	%rsi, (%rax)
	popq	%rbp
	retq
.Lfunc_end64:
	.size	_ZNSt8_Rb_treeIPcSt4pairIKS0_iESt10_Select1stIS3_ESt4lessIS0_ESaIS3_EE11_Alloc_nodeC2ERS9_, .Lfunc_end64-_ZNSt8_Rb_treeIPcSt4pairIKS0_iESt10_Select1stIS3_ESt4lessIS0_ESaIS3_EE11_Alloc_nodeC2ERS9_
	.cfi_endproc

	.section	.text._ZNSt8_Rb_treeIPcSt4pairIKS0_iESt10_Select1stIS3_ESt4lessIS0_ESaIS3_EE17_M_insert_unique_INS9_11_Alloc_nodeEEESt17_Rb_tree_iteratorIS3_ESt23_Rb_tree_const_iteratorIS3_ERKS3_RT_,"axG",@progbits,_ZNSt8_Rb_treeIPcSt4pairIKS0_iESt10_Select1stIS3_ESt4lessIS0_ESaIS3_EE17_M_insert_unique_INS9_11_Alloc_nodeEEESt17_Rb_tree_iteratorIS3_ESt23_Rb_tree_const_iteratorIS3_ERKS3_RT_,comdat
	.weak	_ZNSt8_Rb_treeIPcSt4pairIKS0_iESt10_Select1stIS3_ESt4lessIS0_ESaIS3_EE17_M_insert_unique_INS9_11_Alloc_nodeEEESt17_Rb_tree_iteratorIS3_ESt23_Rb_tree_const_iteratorIS3_ERKS3_RT_
	.align	16, 0x90
	.type	_ZNSt8_Rb_treeIPcSt4pairIKS0_iESt10_Select1stIS3_ESt4lessIS0_ESaIS3_EE17_M_insert_unique_INS9_11_Alloc_nodeEEESt17_Rb_tree_iteratorIS3_ESt23_Rb_tree_const_iteratorIS3_ERKS3_RT_,@function
_ZNSt8_Rb_treeIPcSt4pairIKS0_iESt10_Select1stIS3_ESt4lessIS0_ESaIS3_EE17_M_insert_unique_INS9_11_Alloc_nodeEEESt17_Rb_tree_iteratorIS3_ESt23_Rb_tree_const_iteratorIS3_ERKS3_RT_: # @_ZNSt8_Rb_treeIPcSt4pairIKS0_iESt10_Select1stIS3_ESt4lessIS0_ESaIS3_EE17_M_insert_unique_INS9_11_Alloc_nodeEEESt17_Rb_tree_iteratorIS3_ESt23_Rb_tree_const_iteratorIS3_ERKS3_RT_
	.cfi_startproc
# BB#0:
	pushq	%rbp
.Ltmp229:
	.cfi_def_cfa_offset 16
.Ltmp230:
	.cfi_offset %rbp, -16
	movq	%rsp, %rbp
.Ltmp231:
	.cfi_def_cfa_register %rbp
	pushq	%rbx
	subq	$72, %rsp
.Ltmp232:
	.cfi_offset %rbx, -24
	movq	%rsi, -24(%rbp)
	movq	%rdi, -32(%rbp)
	movq	%rdx, -40(%rbp)
	movq	%rcx, -48(%rbp)
	movq	-32(%rbp), %rbx
	movq	-24(%rbp), %rax
	movq	%rax, -72(%rbp)
	movq	-40(%rbp), %rsi
	leaq	-80(%rbp), %rdi
	callq	_ZNKSt10_Select1stISt4pairIKPciEEclERKS3_
	movq	-72(%rbp), %rsi
	movq	%rbx, %rdi
	movq	%rax, %rdx
	callq	_ZNSt8_Rb_treeIPcSt4pairIKS0_iESt10_Select1stIS3_ESt4lessIS0_ESaIS3_EE29_M_get_insert_hint_unique_posESt23_Rb_tree_const_iteratorIS3_ERS2_
	movq	%rax, -64(%rbp)
	movq	%rdx, -56(%rbp)
	testq	%rdx, %rdx
	je	.LBB65_2
# BB#1:
	movq	-64(%rbp), %rsi
	movq	-56(%rbp), %rdx
	movq	-40(%rbp), %rcx
	movq	-48(%rbp), %r8
	movq	%rbx, %rdi
	callq	_ZNSt8_Rb_treeIPcSt4pairIKS0_iESt10_Select1stIS3_ESt4lessIS0_ESaIS3_EE10_M_insert_INS9_11_Alloc_nodeEEESt17_Rb_tree_iteratorIS3_EPSt18_Rb_tree_node_baseSF_RKS3_RT_
	movq	%rax, -16(%rbp)
	jmp	.LBB65_3
.LBB65_2:
	movq	-64(%rbp), %rsi
	leaq	-16(%rbp), %rdi
	callq	_ZNSt17_Rb_tree_iteratorISt4pairIKPciEEC2EPSt18_Rb_tree_node_base
.LBB65_3:
	movq	-16(%rbp), %rax
	addq	$72, %rsp
	popq	%rbx
	popq	%rbp
	retq
.Lfunc_end65:
	.size	_ZNSt8_Rb_treeIPcSt4pairIKS0_iESt10_Select1stIS3_ESt4lessIS0_ESaIS3_EE17_M_insert_unique_INS9_11_Alloc_nodeEEESt17_Rb_tree_iteratorIS3_ESt23_Rb_tree_const_iteratorIS3_ERKS3_RT_, .Lfunc_end65-_ZNSt8_Rb_treeIPcSt4pairIKS0_iESt10_Select1stIS3_ESt4lessIS0_ESaIS3_EE17_M_insert_unique_INS9_11_Alloc_nodeEEESt17_Rb_tree_iteratorIS3_ESt23_Rb_tree_const_iteratorIS3_ERKS3_RT_
	.cfi_endproc

	.section	.text._ZNSt8_Rb_treeIPcSt4pairIKS0_iESt10_Select1stIS3_ESt4lessIS0_ESaIS3_EE29_M_get_insert_hint_unique_posESt23_Rb_tree_const_iteratorIS3_ERS2_,"axG",@progbits,_ZNSt8_Rb_treeIPcSt4pairIKS0_iESt10_Select1stIS3_ESt4lessIS0_ESaIS3_EE29_M_get_insert_hint_unique_posESt23_Rb_tree_const_iteratorIS3_ERS2_,comdat
	.weak	_ZNSt8_Rb_treeIPcSt4pairIKS0_iESt10_Select1stIS3_ESt4lessIS0_ESaIS3_EE29_M_get_insert_hint_unique_posESt23_Rb_tree_const_iteratorIS3_ERS2_
	.align	16, 0x90
	.type	_ZNSt8_Rb_treeIPcSt4pairIKS0_iESt10_Select1stIS3_ESt4lessIS0_ESaIS3_EE29_M_get_insert_hint_unique_posESt23_Rb_tree_const_iteratorIS3_ERS2_,@function
_ZNSt8_Rb_treeIPcSt4pairIKS0_iESt10_Select1stIS3_ESt4lessIS0_ESaIS3_EE29_M_get_insert_hint_unique_posESt23_Rb_tree_const_iteratorIS3_ERS2_: # @_ZNSt8_Rb_treeIPcSt4pairIKS0_iESt10_Select1stIS3_ESt4lessIS0_ESaIS3_EE29_M_get_insert_hint_unique_posESt23_Rb_tree_const_iteratorIS3_ERS2_
	.cfi_startproc
# BB#0:
	pushq	%rbp
.Ltmp233:
	.cfi_def_cfa_offset 16
.Ltmp234:
	.cfi_offset %rbp, -16
	movq	%rsp, %rbp
.Ltmp235:
	.cfi_def_cfa_register %rbp
	pushq	%r14
	pushq	%rbx
	subq	$112, %rsp
.Ltmp236:
	.cfi_offset %rbx, -32
.Ltmp237:
	.cfi_offset %r14, -24
	movq	%rsi, -40(%rbp)
	movq	%rdi, -48(%rbp)
	movq	%rdx, -56(%rbp)
	movq	-48(%rbp), %r14
	leaq	-40(%rbp), %rdi
	callq	_ZNKSt23_Rb_tree_const_iteratorISt4pairIKPciEE13_M_const_castEv
	movq	%rax, %rbx
	movq	%rbx, -64(%rbp)
	movq	%r14, %rdi
	callq	_ZNSt8_Rb_treeIPcSt4pairIKS0_iESt10_Select1stIS3_ESt4lessIS0_ESaIS3_EE6_M_endEv
	cmpq	%rax, %rbx
	je	.LBB66_1
# BB#5:
	movq	-56(%rbp), %rbx
	movq	-64(%rbp), %rdi
	callq	_ZNSt8_Rb_treeIPcSt4pairIKS0_iESt10_Select1stIS3_ESt4lessIS0_ESaIS3_EE6_S_keyEPKSt18_Rb_tree_node_base
	movq	%r14, %rdi
	movq	%rbx, %rsi
	movq	%rax, %rdx
	callq	_ZNKSt4lessIPcEclERKS0_S3_
	testb	%al, %al
	je	.LBB66_13
# BB#6:
	movq	-64(%rbp), %rax
	movq	%rax, -80(%rbp)
	movq	-64(%rbp), %rbx
	movq	%r14, %rdi
	callq	_ZNSt8_Rb_treeIPcSt4pairIKS0_iESt10_Select1stIS3_ESt4lessIS0_ESaIS3_EE11_M_leftmostEv
	cmpq	(%rax), %rbx
	je	.LBB66_7
# BB#8:
	leaq	-80(%rbp), %rdi
	callq	_ZNSt17_Rb_tree_iteratorISt4pairIKPciEEmmEv
	movq	(%rax), %rdi
	callq	_ZNSt8_Rb_treeIPcSt4pairIKS0_iESt10_Select1stIS3_ESt4lessIS0_ESaIS3_EE6_S_keyEPKSt18_Rb_tree_node_base
	movq	-56(%rbp), %rdx
	movq	%r14, %rdi
	movq	%rax, %rsi
	callq	_ZNKSt4lessIPcEclERKS0_S3_
	testb	%al, %al
	je	.LBB66_20
# BB#9:
	movq	-80(%rbp), %rdi
	callq	_ZNSt8_Rb_treeIPcSt4pairIKS0_iESt10_Select1stIS3_ESt4lessIS0_ESaIS3_EE8_S_rightEPSt18_Rb_tree_node_base
	testq	%rax, %rax
	je	.LBB66_10
# BB#11:
	leaq	-32(%rbp), %rdi
	leaq	-64(%rbp), %rsi
	movq	%rsi, %rdx
	jmp	.LBB66_22
.LBB66_1:
	movq	%r14, %rdi
	callq	_ZNKSt8_Rb_treeIPcSt4pairIKS0_iESt10_Select1stIS3_ESt4lessIS0_ESaIS3_EE4sizeEv
	testq	%rax, %rax
	je	.LBB66_20
# BB#2:
	movq	%r14, %rdi
	callq	_ZNSt8_Rb_treeIPcSt4pairIKS0_iESt10_Select1stIS3_ESt4lessIS0_ESaIS3_EE12_M_rightmostEv
	movq	(%rax), %rdi
	callq	_ZNSt8_Rb_treeIPcSt4pairIKS0_iESt10_Select1stIS3_ESt4lessIS0_ESaIS3_EE6_S_keyEPKSt18_Rb_tree_node_base
	movq	-56(%rbp), %rdx
	movq	%r14, %rdi
	movq	%rax, %rsi
	callq	_ZNKSt4lessIPcEclERKS0_S3_
	testb	%al, %al
	je	.LBB66_20
# BB#3:
	movq	$0, -72(%rbp)
	movq	%r14, %rdi
	callq	_ZNSt8_Rb_treeIPcSt4pairIKS0_iESt10_Select1stIS3_ESt4lessIS0_ESaIS3_EE12_M_rightmostEv
	leaq	-32(%rbp), %rdi
	leaq	-72(%rbp), %rsi
	movq	%rax, %rdx
	jmp	.LBB66_22
.LBB66_13:
	movq	-64(%rbp), %rdi
	callq	_ZNSt8_Rb_treeIPcSt4pairIKS0_iESt10_Select1stIS3_ESt4lessIS0_ESaIS3_EE6_S_keyEPKSt18_Rb_tree_node_base
	movq	-56(%rbp), %rdx
	movq	%r14, %rdi
	movq	%rax, %rsi
	callq	_ZNKSt4lessIPcEclERKS0_S3_
	testb	%al, %al
	je	.LBB66_21
# BB#14:
	movq	-64(%rbp), %rax
	movq	%rax, -96(%rbp)
	movq	-64(%rbp), %rbx
	movq	%r14, %rdi
	callq	_ZNSt8_Rb_treeIPcSt4pairIKS0_iESt10_Select1stIS3_ESt4lessIS0_ESaIS3_EE12_M_rightmostEv
	cmpq	(%rax), %rbx
	je	.LBB66_15
# BB#16:
	movq	-56(%rbp), %rbx
	leaq	-96(%rbp), %rdi
	callq	_ZNSt17_Rb_tree_iteratorISt4pairIKPciEEppEv
	movq	(%rax), %rdi
	callq	_ZNSt8_Rb_treeIPcSt4pairIKS0_iESt10_Select1stIS3_ESt4lessIS0_ESaIS3_EE6_S_keyEPKSt18_Rb_tree_node_base
	movq	%r14, %rdi
	movq	%rbx, %rsi
	movq	%rax, %rdx
	callq	_ZNKSt4lessIPcEclERKS0_S3_
	testb	%al, %al
	je	.LBB66_20
# BB#17:
	movq	-64(%rbp), %rdi
	callq	_ZNSt8_Rb_treeIPcSt4pairIKS0_iESt10_Select1stIS3_ESt4lessIS0_ESaIS3_EE8_S_rightEPSt18_Rb_tree_node_base
	testq	%rax, %rax
	je	.LBB66_18
# BB#19:
	leaq	-32(%rbp), %rdi
	leaq	-96(%rbp), %rsi
	movq	%rsi, %rdx
	jmp	.LBB66_22
.LBB66_20:
	movq	-56(%rbp), %rsi
	movq	%r14, %rdi
	callq	_ZNSt8_Rb_treeIPcSt4pairIKS0_iESt10_Select1stIS3_ESt4lessIS0_ESaIS3_EE24_M_get_insert_unique_posERS2_
	movq	%rax, -32(%rbp)
	movq	%rdx, -24(%rbp)
	jmp	.LBB66_23
.LBB66_21:
	movq	$0, -120(%rbp)
	leaq	-32(%rbp), %rdi
	leaq	-64(%rbp), %rsi
	leaq	-120(%rbp), %rdx
	jmp	.LBB66_22
.LBB66_7:
	movq	%r14, %rdi
	callq	_ZNSt8_Rb_treeIPcSt4pairIKS0_iESt10_Select1stIS3_ESt4lessIS0_ESaIS3_EE11_M_leftmostEv
	movq	%rax, %rbx
	movq	%r14, %rdi
	callq	_ZNSt8_Rb_treeIPcSt4pairIKS0_iESt10_Select1stIS3_ESt4lessIS0_ESaIS3_EE11_M_leftmostEv
	leaq	-32(%rbp), %rdi
	movq	%rbx, %rsi
	movq	%rax, %rdx
	jmp	.LBB66_22
.LBB66_15:
	movq	$0, -104(%rbp)
	movq	%r14, %rdi
	callq	_ZNSt8_Rb_treeIPcSt4pairIKS0_iESt10_Select1stIS3_ESt4lessIS0_ESaIS3_EE12_M_rightmostEv
	leaq	-32(%rbp), %rdi
	leaq	-104(%rbp), %rsi
	movq	%rax, %rdx
	jmp	.LBB66_22
.LBB66_10:
	movq	$0, -88(%rbp)
	leaq	-32(%rbp), %rdi
	leaq	-88(%rbp), %rsi
	leaq	-80(%rbp), %rdx
	jmp	.LBB66_22
.LBB66_18:
	movq	$0, -112(%rbp)
	leaq	-32(%rbp), %rdi
	leaq	-112(%rbp), %rsi
	leaq	-64(%rbp), %rdx
.LBB66_22:
	callq	_ZNSt4pairIPSt18_Rb_tree_node_baseS1_EC2ERKS1_S4_
.LBB66_23:
	movq	-32(%rbp), %rax
	movq	-24(%rbp), %rdx
	addq	$112, %rsp
	popq	%rbx
	popq	%r14
	popq	%rbp
	retq
.Lfunc_end66:
	.size	_ZNSt8_Rb_treeIPcSt4pairIKS0_iESt10_Select1stIS3_ESt4lessIS0_ESaIS3_EE29_M_get_insert_hint_unique_posESt23_Rb_tree_const_iteratorIS3_ERS2_, .Lfunc_end66-_ZNSt8_Rb_treeIPcSt4pairIKS0_iESt10_Select1stIS3_ESt4lessIS0_ESaIS3_EE29_M_get_insert_hint_unique_posESt23_Rb_tree_const_iteratorIS3_ERS2_
	.cfi_endproc

	.section	.text._ZNKSt23_Rb_tree_const_iteratorISt4pairIKPciEE13_M_const_castEv,"axG",@progbits,_ZNKSt23_Rb_tree_const_iteratorISt4pairIKPciEE13_M_const_castEv,comdat
	.weak	_ZNKSt23_Rb_tree_const_iteratorISt4pairIKPciEE13_M_const_castEv
	.align	16, 0x90
	.type	_ZNKSt23_Rb_tree_const_iteratorISt4pairIKPciEE13_M_const_castEv,@function
_ZNKSt23_Rb_tree_const_iteratorISt4pairIKPciEE13_M_const_castEv: # @_ZNKSt23_Rb_tree_const_iteratorISt4pairIKPciEE13_M_const_castEv
	.cfi_startproc
# BB#0:
	pushq	%rbp
.Ltmp238:
	.cfi_def_cfa_offset 16
.Ltmp239:
	.cfi_offset %rbp, -16
	movq	%rsp, %rbp
.Ltmp240:
	.cfi_def_cfa_register %rbp
	subq	$16, %rsp
	movq	%rdi, -16(%rbp)
	movq	(%rdi), %rsi
	leaq	-8(%rbp), %rdi
	callq	_ZNSt17_Rb_tree_iteratorISt4pairIKPciEEC2EPSt18_Rb_tree_node_base
	movq	-8(%rbp), %rax
	addq	$16, %rsp
	popq	%rbp
	retq
.Lfunc_end67:
	.size	_ZNKSt23_Rb_tree_const_iteratorISt4pairIKPciEE13_M_const_castEv, .Lfunc_end67-_ZNKSt23_Rb_tree_const_iteratorISt4pairIKPciEE13_M_const_castEv
	.cfi_endproc

	.section	.text._ZNKSt8_Rb_treeIPcSt4pairIKS0_iESt10_Select1stIS3_ESt4lessIS0_ESaIS3_EE4sizeEv,"axG",@progbits,_ZNKSt8_Rb_treeIPcSt4pairIKS0_iESt10_Select1stIS3_ESt4lessIS0_ESaIS3_EE4sizeEv,comdat
	.weak	_ZNKSt8_Rb_treeIPcSt4pairIKS0_iESt10_Select1stIS3_ESt4lessIS0_ESaIS3_EE4sizeEv
	.align	16, 0x90
	.type	_ZNKSt8_Rb_treeIPcSt4pairIKS0_iESt10_Select1stIS3_ESt4lessIS0_ESaIS3_EE4sizeEv,@function
_ZNKSt8_Rb_treeIPcSt4pairIKS0_iESt10_Select1stIS3_ESt4lessIS0_ESaIS3_EE4sizeEv: # @_ZNKSt8_Rb_treeIPcSt4pairIKS0_iESt10_Select1stIS3_ESt4lessIS0_ESaIS3_EE4sizeEv
	.cfi_startproc
# BB#0:
	pushq	%rbp
.Ltmp241:
	.cfi_def_cfa_offset 16
.Ltmp242:
	.cfi_offset %rbp, -16
	movq	%rsp, %rbp
.Ltmp243:
	.cfi_def_cfa_register %rbp
	movq	%rdi, -8(%rbp)
	movq	40(%rdi), %rax
	popq	%rbp
	retq
.Lfunc_end68:
	.size	_ZNKSt8_Rb_treeIPcSt4pairIKS0_iESt10_Select1stIS3_ESt4lessIS0_ESaIS3_EE4sizeEv, .Lfunc_end68-_ZNKSt8_Rb_treeIPcSt4pairIKS0_iESt10_Select1stIS3_ESt4lessIS0_ESaIS3_EE4sizeEv
	.cfi_endproc

	.section	.text._ZNSt8_Rb_treeIPcSt4pairIKS0_iESt10_Select1stIS3_ESt4lessIS0_ESaIS3_EE12_M_rightmostEv,"axG",@progbits,_ZNSt8_Rb_treeIPcSt4pairIKS0_iESt10_Select1stIS3_ESt4lessIS0_ESaIS3_EE12_M_rightmostEv,comdat
	.weak	_ZNSt8_Rb_treeIPcSt4pairIKS0_iESt10_Select1stIS3_ESt4lessIS0_ESaIS3_EE12_M_rightmostEv
	.align	16, 0x90
	.type	_ZNSt8_Rb_treeIPcSt4pairIKS0_iESt10_Select1stIS3_ESt4lessIS0_ESaIS3_EE12_M_rightmostEv,@function
_ZNSt8_Rb_treeIPcSt4pairIKS0_iESt10_Select1stIS3_ESt4lessIS0_ESaIS3_EE12_M_rightmostEv: # @_ZNSt8_Rb_treeIPcSt4pairIKS0_iESt10_Select1stIS3_ESt4lessIS0_ESaIS3_EE12_M_rightmostEv
	.cfi_startproc
# BB#0:
	pushq	%rbp
.Ltmp244:
	.cfi_def_cfa_offset 16
.Ltmp245:
	.cfi_offset %rbp, -16
	movq	%rsp, %rbp
.Ltmp246:
	.cfi_def_cfa_register %rbp
	movq	%rdi, -8(%rbp)
	leaq	32(%rdi), %rax
	popq	%rbp
	retq
.Lfunc_end69:
	.size	_ZNSt8_Rb_treeIPcSt4pairIKS0_iESt10_Select1stIS3_ESt4lessIS0_ESaIS3_EE12_M_rightmostEv, .Lfunc_end69-_ZNSt8_Rb_treeIPcSt4pairIKS0_iESt10_Select1stIS3_ESt4lessIS0_ESaIS3_EE12_M_rightmostEv
	.cfi_endproc

	.section	.text._ZNSt8_Rb_treeIPcSt4pairIKS0_iESt10_Select1stIS3_ESt4lessIS0_ESaIS3_EE6_S_keyEPKSt18_Rb_tree_node_base,"axG",@progbits,_ZNSt8_Rb_treeIPcSt4pairIKS0_iESt10_Select1stIS3_ESt4lessIS0_ESaIS3_EE6_S_keyEPKSt18_Rb_tree_node_base,comdat
	.weak	_ZNSt8_Rb_treeIPcSt4pairIKS0_iESt10_Select1stIS3_ESt4lessIS0_ESaIS3_EE6_S_keyEPKSt18_Rb_tree_node_base
	.align	16, 0x90
	.type	_ZNSt8_Rb_treeIPcSt4pairIKS0_iESt10_Select1stIS3_ESt4lessIS0_ESaIS3_EE6_S_keyEPKSt18_Rb_tree_node_base,@function
_ZNSt8_Rb_treeIPcSt4pairIKS0_iESt10_Select1stIS3_ESt4lessIS0_ESaIS3_EE6_S_keyEPKSt18_Rb_tree_node_base: # @_ZNSt8_Rb_treeIPcSt4pairIKS0_iESt10_Select1stIS3_ESt4lessIS0_ESaIS3_EE6_S_keyEPKSt18_Rb_tree_node_base
	.cfi_startproc
# BB#0:
	pushq	%rbp
.Ltmp247:
	.cfi_def_cfa_offset 16
.Ltmp248:
	.cfi_offset %rbp, -16
	movq	%rsp, %rbp
.Ltmp249:
	.cfi_def_cfa_register %rbp
	subq	$16, %rsp
	movq	%rdi, -8(%rbp)
	callq	_ZNSt8_Rb_treeIPcSt4pairIKS0_iESt10_Select1stIS3_ESt4lessIS0_ESaIS3_EE8_S_valueEPKSt18_Rb_tree_node_base
	leaq	-16(%rbp), %rdi
	movq	%rax, %rsi
	callq	_ZNKSt10_Select1stISt4pairIKPciEEclERKS3_
	addq	$16, %rsp
	popq	%rbp
	retq
.Lfunc_end70:
	.size	_ZNSt8_Rb_treeIPcSt4pairIKS0_iESt10_Select1stIS3_ESt4lessIS0_ESaIS3_EE6_S_keyEPKSt18_Rb_tree_node_base, .Lfunc_end70-_ZNSt8_Rb_treeIPcSt4pairIKS0_iESt10_Select1stIS3_ESt4lessIS0_ESaIS3_EE6_S_keyEPKSt18_Rb_tree_node_base
	.cfi_endproc

	.section	.text._ZNSt8_Rb_treeIPcSt4pairIKS0_iESt10_Select1stIS3_ESt4lessIS0_ESaIS3_EE8_S_valueEPKSt18_Rb_tree_node_base,"axG",@progbits,_ZNSt8_Rb_treeIPcSt4pairIKS0_iESt10_Select1stIS3_ESt4lessIS0_ESaIS3_EE8_S_valueEPKSt18_Rb_tree_node_base,comdat
	.weak	_ZNSt8_Rb_treeIPcSt4pairIKS0_iESt10_Select1stIS3_ESt4lessIS0_ESaIS3_EE8_S_valueEPKSt18_Rb_tree_node_base
	.align	16, 0x90
	.type	_ZNSt8_Rb_treeIPcSt4pairIKS0_iESt10_Select1stIS3_ESt4lessIS0_ESaIS3_EE8_S_valueEPKSt18_Rb_tree_node_base,@function
_ZNSt8_Rb_treeIPcSt4pairIKS0_iESt10_Select1stIS3_ESt4lessIS0_ESaIS3_EE8_S_valueEPKSt18_Rb_tree_node_base: # @_ZNSt8_Rb_treeIPcSt4pairIKS0_iESt10_Select1stIS3_ESt4lessIS0_ESaIS3_EE8_S_valueEPKSt18_Rb_tree_node_base
	.cfi_startproc
# BB#0:
	pushq	%rbp
.Ltmp250:
	.cfi_def_cfa_offset 16
.Ltmp251:
	.cfi_offset %rbp, -16
	movq	%rsp, %rbp
.Ltmp252:
	.cfi_def_cfa_register %rbp
	subq	$16, %rsp
	movq	%rdi, -8(%rbp)
	callq	_ZNKSt13_Rb_tree_nodeISt4pairIKPciEE9_M_valptrEv
	addq	$16, %rsp
	popq	%rbp
	retq
.Lfunc_end71:
	.size	_ZNSt8_Rb_treeIPcSt4pairIKS0_iESt10_Select1stIS3_ESt4lessIS0_ESaIS3_EE8_S_valueEPKSt18_Rb_tree_node_base, .Lfunc_end71-_ZNSt8_Rb_treeIPcSt4pairIKS0_iESt10_Select1stIS3_ESt4lessIS0_ESaIS3_EE8_S_valueEPKSt18_Rb_tree_node_base
	.cfi_endproc

	.section	.text._ZNSt4pairIPSt18_Rb_tree_node_baseS1_EC2ERKS1_S4_,"axG",@progbits,_ZNSt4pairIPSt18_Rb_tree_node_baseS1_EC2ERKS1_S4_,comdat
	.weak	_ZNSt4pairIPSt18_Rb_tree_node_baseS1_EC2ERKS1_S4_
	.align	16, 0x90
	.type	_ZNSt4pairIPSt18_Rb_tree_node_baseS1_EC2ERKS1_S4_,@function
_ZNSt4pairIPSt18_Rb_tree_node_baseS1_EC2ERKS1_S4_: # @_ZNSt4pairIPSt18_Rb_tree_node_baseS1_EC2ERKS1_S4_
	.cfi_startproc
# BB#0:
	pushq	%rbp
.Ltmp253:
	.cfi_def_cfa_offset 16
.Ltmp254:
	.cfi_offset %rbp, -16
	movq	%rsp, %rbp
.Ltmp255:
	.cfi_def_cfa_register %rbp
	movq	%rdi, -8(%rbp)
	movq	%rsi, -16(%rbp)
	movq	%rdx, -24(%rbp)
	movq	-8(%rbp), %rax
	movq	-16(%rbp), %rcx
	movq	(%rcx), %rcx
	movq	%rcx, (%rax)
	movq	-24(%rbp), %rcx
	movq	(%rcx), %rcx
	movq	%rcx, 8(%rax)
	popq	%rbp
	retq
.Lfunc_end72:
	.size	_ZNSt4pairIPSt18_Rb_tree_node_baseS1_EC2ERKS1_S4_, .Lfunc_end72-_ZNSt4pairIPSt18_Rb_tree_node_baseS1_EC2ERKS1_S4_
	.cfi_endproc

	.section	.text._ZNSt8_Rb_treeIPcSt4pairIKS0_iESt10_Select1stIS3_ESt4lessIS0_ESaIS3_EE24_M_get_insert_unique_posERS2_,"axG",@progbits,_ZNSt8_Rb_treeIPcSt4pairIKS0_iESt10_Select1stIS3_ESt4lessIS0_ESaIS3_EE24_M_get_insert_unique_posERS2_,comdat
	.weak	_ZNSt8_Rb_treeIPcSt4pairIKS0_iESt10_Select1stIS3_ESt4lessIS0_ESaIS3_EE24_M_get_insert_unique_posERS2_
	.align	16, 0x90
	.type	_ZNSt8_Rb_treeIPcSt4pairIKS0_iESt10_Select1stIS3_ESt4lessIS0_ESaIS3_EE24_M_get_insert_unique_posERS2_,@function
_ZNSt8_Rb_treeIPcSt4pairIKS0_iESt10_Select1stIS3_ESt4lessIS0_ESaIS3_EE24_M_get_insert_unique_posERS2_: # @_ZNSt8_Rb_treeIPcSt4pairIKS0_iESt10_Select1stIS3_ESt4lessIS0_ESaIS3_EE24_M_get_insert_unique_posERS2_
	.cfi_startproc
# BB#0:
	pushq	%rbp
.Ltmp256:
	.cfi_def_cfa_offset 16
.Ltmp257:
	.cfi_offset %rbp, -16
	movq	%rsp, %rbp
.Ltmp258:
	.cfi_def_cfa_register %rbp
	pushq	%r14
	pushq	%rbx
	subq	$96, %rsp
.Ltmp259:
	.cfi_offset %rbx, -32
.Ltmp260:
	.cfi_offset %r14, -24
	movq	%rdi, -40(%rbp)
	movq	%rsi, -48(%rbp)
	movq	-40(%rbp), %r14
	movq	%r14, %rdi
	callq	_ZNSt8_Rb_treeIPcSt4pairIKS0_iESt10_Select1stIS3_ESt4lessIS0_ESaIS3_EE8_M_beginEv
	movq	%rax, -56(%rbp)
	movq	%r14, %rdi
	callq	_ZNSt8_Rb_treeIPcSt4pairIKS0_iESt10_Select1stIS3_ESt4lessIS0_ESaIS3_EE6_M_endEv
	movq	%rax, -64(%rbp)
	movb	$1, -65(%rbp)
	jmp	.LBB73_1
	.align	16, 0x90
.LBB73_3:                               #   in Loop: Header=BB73_1 Depth=1
	movq	-56(%rbp), %rdi
	callq	_ZNSt8_Rb_treeIPcSt4pairIKS0_iESt10_Select1stIS3_ESt4lessIS0_ESaIS3_EE7_S_leftEPSt18_Rb_tree_node_base
	movq	%rax, -56(%rbp)
.LBB73_1:                               # =>This Inner Loop Header: Depth=1
	cmpq	$0, -56(%rbp)
	je	.LBB73_5
# BB#2:                                 #   in Loop: Header=BB73_1 Depth=1
	movq	-56(%rbp), %rax
	movq	%rax, -64(%rbp)
	movq	-48(%rbp), %rbx
	movq	-56(%rbp), %rdi
	callq	_ZNSt8_Rb_treeIPcSt4pairIKS0_iESt10_Select1stIS3_ESt4lessIS0_ESaIS3_EE6_S_keyEPKSt13_Rb_tree_nodeIS3_E
	movq	%r14, %rdi
	movq	%rbx, %rsi
	movq	%rax, %rdx
	callq	_ZNKSt4lessIPcEclERKS0_S3_
	movb	%al, -65(%rbp)
	testb	%al, %al
	jne	.LBB73_3
# BB#4:                                 #   in Loop: Header=BB73_1 Depth=1
	movq	-56(%rbp), %rdi
	callq	_ZNSt8_Rb_treeIPcSt4pairIKS0_iESt10_Select1stIS3_ESt4lessIS0_ESaIS3_EE8_S_rightEPSt18_Rb_tree_node_base
	movq	%rax, -56(%rbp)
	jmp	.LBB73_1
.LBB73_5:
	movq	-64(%rbp), %rsi
	leaq	-80(%rbp), %rdi
	callq	_ZNSt17_Rb_tree_iteratorISt4pairIKPciEEC2EPSt18_Rb_tree_node_base
	testb	$1, -65(%rbp)
	je	.LBB73_10
# BB#6:
	movq	%r14, %rdi
	callq	_ZNSt8_Rb_treeIPcSt4pairIKS0_iESt10_Select1stIS3_ESt4lessIS0_ESaIS3_EE5beginEv
	movq	%rax, -88(%rbp)
	leaq	-80(%rbp), %rdi
	leaq	-88(%rbp), %rsi
	callq	_ZNKSt17_Rb_tree_iteratorISt4pairIKPciEEeqERKS4_
	testb	%al, %al
	je	.LBB73_9
# BB#7:
	movq	-56(%rbp), %rax
	movq	%rax, -96(%rbp)
	leaq	-32(%rbp), %rdi
	leaq	-96(%rbp), %rsi
	leaq	-64(%rbp), %rdx
	jmp	.LBB73_13
.LBB73_9:
	leaq	-80(%rbp), %rdi
	callq	_ZNSt17_Rb_tree_iteratorISt4pairIKPciEEmmEv
.LBB73_10:
	movq	-80(%rbp), %rdi
	callq	_ZNSt8_Rb_treeIPcSt4pairIKS0_iESt10_Select1stIS3_ESt4lessIS0_ESaIS3_EE6_S_keyEPKSt18_Rb_tree_node_base
	movq	-48(%rbp), %rdx
	movq	%r14, %rdi
	movq	%rax, %rsi
	callq	_ZNKSt4lessIPcEclERKS0_S3_
	testb	%al, %al
	je	.LBB73_12
# BB#11:
	movq	-56(%rbp), %rax
	movq	%rax, -104(%rbp)
	leaq	-32(%rbp), %rdi
	leaq	-104(%rbp), %rsi
	leaq	-64(%rbp), %rdx
	jmp	.LBB73_13
.LBB73_12:
	movq	$0, -112(%rbp)
	leaq	-32(%rbp), %rdi
	leaq	-80(%rbp), %rsi
	leaq	-112(%rbp), %rdx
.LBB73_13:
	callq	_ZNSt4pairIPSt18_Rb_tree_node_baseS1_EC2ERKS1_S4_
	movq	-32(%rbp), %rax
	movq	-24(%rbp), %rdx
	addq	$96, %rsp
	popq	%rbx
	popq	%r14
	popq	%rbp
	retq
.Lfunc_end73:
	.size	_ZNSt8_Rb_treeIPcSt4pairIKS0_iESt10_Select1stIS3_ESt4lessIS0_ESaIS3_EE24_M_get_insert_unique_posERS2_, .Lfunc_end73-_ZNSt8_Rb_treeIPcSt4pairIKS0_iESt10_Select1stIS3_ESt4lessIS0_ESaIS3_EE24_M_get_insert_unique_posERS2_
	.cfi_endproc

	.section	.text._ZNSt17_Rb_tree_iteratorISt4pairIKPciEEmmEv,"axG",@progbits,_ZNSt17_Rb_tree_iteratorISt4pairIKPciEEmmEv,comdat
	.weak	_ZNSt17_Rb_tree_iteratorISt4pairIKPciEEmmEv
	.align	16, 0x90
	.type	_ZNSt17_Rb_tree_iteratorISt4pairIKPciEEmmEv,@function
_ZNSt17_Rb_tree_iteratorISt4pairIKPciEEmmEv: # @_ZNSt17_Rb_tree_iteratorISt4pairIKPciEEmmEv
	.cfi_startproc
# BB#0:
	pushq	%rbp
.Ltmp261:
	.cfi_def_cfa_offset 16
.Ltmp262:
	.cfi_offset %rbp, -16
	movq	%rsp, %rbp
.Ltmp263:
	.cfi_def_cfa_register %rbp
	pushq	%rbx
	pushq	%rax
.Ltmp264:
	.cfi_offset %rbx, -24
	movq	%rdi, %rbx
	movq	%rbx, -16(%rbp)
	movq	(%rbx), %rdi
	callq	_ZSt18_Rb_tree_decrementPSt18_Rb_tree_node_base
	movq	%rax, (%rbx)
	movq	%rbx, %rax
	addq	$8, %rsp
	popq	%rbx
	popq	%rbp
	retq
.Lfunc_end74:
	.size	_ZNSt17_Rb_tree_iteratorISt4pairIKPciEEmmEv, .Lfunc_end74-_ZNSt17_Rb_tree_iteratorISt4pairIKPciEEmmEv
	.cfi_endproc

	.section	.text._ZNSt8_Rb_treeIPcSt4pairIKS0_iESt10_Select1stIS3_ESt4lessIS0_ESaIS3_EE11_M_leftmostEv,"axG",@progbits,_ZNSt8_Rb_treeIPcSt4pairIKS0_iESt10_Select1stIS3_ESt4lessIS0_ESaIS3_EE11_M_leftmostEv,comdat
	.weak	_ZNSt8_Rb_treeIPcSt4pairIKS0_iESt10_Select1stIS3_ESt4lessIS0_ESaIS3_EE11_M_leftmostEv
	.align	16, 0x90
	.type	_ZNSt8_Rb_treeIPcSt4pairIKS0_iESt10_Select1stIS3_ESt4lessIS0_ESaIS3_EE11_M_leftmostEv,@function
_ZNSt8_Rb_treeIPcSt4pairIKS0_iESt10_Select1stIS3_ESt4lessIS0_ESaIS3_EE11_M_leftmostEv: # @_ZNSt8_Rb_treeIPcSt4pairIKS0_iESt10_Select1stIS3_ESt4lessIS0_ESaIS3_EE11_M_leftmostEv
	.cfi_startproc
# BB#0:
	pushq	%rbp
.Ltmp265:
	.cfi_def_cfa_offset 16
.Ltmp266:
	.cfi_offset %rbp, -16
	movq	%rsp, %rbp
.Ltmp267:
	.cfi_def_cfa_register %rbp
	movq	%rdi, -8(%rbp)
	leaq	24(%rdi), %rax
	popq	%rbp
	retq
.Lfunc_end75:
	.size	_ZNSt8_Rb_treeIPcSt4pairIKS0_iESt10_Select1stIS3_ESt4lessIS0_ESaIS3_EE11_M_leftmostEv, .Lfunc_end75-_ZNSt8_Rb_treeIPcSt4pairIKS0_iESt10_Select1stIS3_ESt4lessIS0_ESaIS3_EE11_M_leftmostEv
	.cfi_endproc

	.section	.text._ZNSt17_Rb_tree_iteratorISt4pairIKPciEEppEv,"axG",@progbits,_ZNSt17_Rb_tree_iteratorISt4pairIKPciEEppEv,comdat
	.weak	_ZNSt17_Rb_tree_iteratorISt4pairIKPciEEppEv
	.align	16, 0x90
	.type	_ZNSt17_Rb_tree_iteratorISt4pairIKPciEEppEv,@function
_ZNSt17_Rb_tree_iteratorISt4pairIKPciEEppEv: # @_ZNSt17_Rb_tree_iteratorISt4pairIKPciEEppEv
	.cfi_startproc
# BB#0:
	pushq	%rbp
.Ltmp268:
	.cfi_def_cfa_offset 16
.Ltmp269:
	.cfi_offset %rbp, -16
	movq	%rsp, %rbp
.Ltmp270:
	.cfi_def_cfa_register %rbp
	pushq	%rbx
	pushq	%rax
.Ltmp271:
	.cfi_offset %rbx, -24
	movq	%rdi, %rbx
	movq	%rbx, -16(%rbp)
	movq	(%rbx), %rdi
	callq	_ZSt18_Rb_tree_incrementPSt18_Rb_tree_node_base
	movq	%rax, (%rbx)
	movq	%rbx, %rax
	addq	$8, %rsp
	popq	%rbx
	popq	%rbp
	retq
.Lfunc_end76:
	.size	_ZNSt17_Rb_tree_iteratorISt4pairIKPciEEppEv, .Lfunc_end76-_ZNSt17_Rb_tree_iteratorISt4pairIKPciEEppEv
	.cfi_endproc

	.section	.text._ZNSt8_Rb_treeIPcSt4pairIKS0_iESt10_Select1stIS3_ESt4lessIS0_ESaIS3_EE10_M_insert_INS9_11_Alloc_nodeEEESt17_Rb_tree_iteratorIS3_EPSt18_Rb_tree_node_baseSF_RKS3_RT_,"axG",@progbits,_ZNSt8_Rb_treeIPcSt4pairIKS0_iESt10_Select1stIS3_ESt4lessIS0_ESaIS3_EE10_M_insert_INS9_11_Alloc_nodeEEESt17_Rb_tree_iteratorIS3_EPSt18_Rb_tree_node_baseSF_RKS3_RT_,comdat
	.weak	_ZNSt8_Rb_treeIPcSt4pairIKS0_iESt10_Select1stIS3_ESt4lessIS0_ESaIS3_EE10_M_insert_INS9_11_Alloc_nodeEEESt17_Rb_tree_iteratorIS3_EPSt18_Rb_tree_node_baseSF_RKS3_RT_
	.align	16, 0x90
	.type	_ZNSt8_Rb_treeIPcSt4pairIKS0_iESt10_Select1stIS3_ESt4lessIS0_ESaIS3_EE10_M_insert_INS9_11_Alloc_nodeEEESt17_Rb_tree_iteratorIS3_EPSt18_Rb_tree_node_baseSF_RKS3_RT_,@function
_ZNSt8_Rb_treeIPcSt4pairIKS0_iESt10_Select1stIS3_ESt4lessIS0_ESaIS3_EE10_M_insert_INS9_11_Alloc_nodeEEESt17_Rb_tree_iteratorIS3_EPSt18_Rb_tree_node_baseSF_RKS3_RT_: # @_ZNSt8_Rb_treeIPcSt4pairIKS0_iESt10_Select1stIS3_ESt4lessIS0_ESaIS3_EE10_M_insert_INS9_11_Alloc_nodeEEESt17_Rb_tree_iteratorIS3_EPSt18_Rb_tree_node_baseSF_RKS3_RT_
	.cfi_startproc
# BB#0:
	pushq	%rbp
.Ltmp272:
	.cfi_def_cfa_offset 16
.Ltmp273:
	.cfi_offset %rbp, -16
	movq	%rsp, %rbp
.Ltmp274:
	.cfi_def_cfa_register %rbp
	pushq	%r15
	pushq	%r14
	pushq	%rbx
	subq	$72, %rsp
.Ltmp275:
	.cfi_offset %rbx, -40
.Ltmp276:
	.cfi_offset %r14, -32
.Ltmp277:
	.cfi_offset %r15, -24
	movq	%rdi, -40(%rbp)
	movq	%rsi, -48(%rbp)
	movq	%rdx, -56(%rbp)
	movq	%rcx, -64(%rbp)
	movq	%r8, -72(%rbp)
	movq	-40(%rbp), %r14
	movb	$1, %bl
	cmpq	$0, -48(%rbp)
	jne	.LBB77_3
# BB#1:
	movq	-56(%rbp), %r15
	movq	%r14, %rdi
	callq	_ZNSt8_Rb_treeIPcSt4pairIKS0_iESt10_Select1stIS3_ESt4lessIS0_ESaIS3_EE6_M_endEv
	cmpq	%rax, %r15
	je	.LBB77_3
# BB#2:
	movq	-64(%rbp), %rsi
	leaq	-80(%rbp), %rdi
	callq	_ZNKSt10_Select1stISt4pairIKPciEEclERKS3_
	movq	%rax, %rbx
	movq	-56(%rbp), %rdi
	callq	_ZNSt8_Rb_treeIPcSt4pairIKS0_iESt10_Select1stIS3_ESt4lessIS0_ESaIS3_EE6_S_keyEPKSt18_Rb_tree_node_base
	movq	%r14, %rdi
	movq	%rbx, %rsi
	movq	%rax, %rdx
	callq	_ZNKSt4lessIPcEclERKS0_S3_
	movb	%al, %bl
.LBB77_3:
	movb	%bl, -73(%rbp)
	movq	-72(%rbp), %rdi
	movq	-64(%rbp), %rsi
	callq	_ZNKSt8_Rb_treeIPcSt4pairIKS0_iESt10_Select1stIS3_ESt4lessIS0_ESaIS3_EE11_Alloc_nodeclIS3_EEPSt13_Rb_tree_nodeIS3_ERKT_
	movq	%rax, -88(%rbp)
	movzbl	-73(%rbp), %edi
	movq	-56(%rbp), %rdx
	leaq	8(%r14), %rcx
	andl	$1, %edi
	movq	%rax, %rsi
	callq	_ZSt29_Rb_tree_insert_and_rebalancebPSt18_Rb_tree_node_baseS0_RS_
	incq	40(%r14)
	movq	-88(%rbp), %rsi
	leaq	-32(%rbp), %rdi
	callq	_ZNSt17_Rb_tree_iteratorISt4pairIKPciEEC2EPSt18_Rb_tree_node_base
	movq	-32(%rbp), %rax
	addq	$72, %rsp
	popq	%rbx
	popq	%r14
	popq	%r15
	popq	%rbp
	retq
.Lfunc_end77:
	.size	_ZNSt8_Rb_treeIPcSt4pairIKS0_iESt10_Select1stIS3_ESt4lessIS0_ESaIS3_EE10_M_insert_INS9_11_Alloc_nodeEEESt17_Rb_tree_iteratorIS3_EPSt18_Rb_tree_node_baseSF_RKS3_RT_, .Lfunc_end77-_ZNSt8_Rb_treeIPcSt4pairIKS0_iESt10_Select1stIS3_ESt4lessIS0_ESaIS3_EE10_M_insert_INS9_11_Alloc_nodeEEESt17_Rb_tree_iteratorIS3_EPSt18_Rb_tree_node_baseSF_RKS3_RT_
	.cfi_endproc

	.section	.text._ZNKSt8_Rb_treeIPcSt4pairIKS0_iESt10_Select1stIS3_ESt4lessIS0_ESaIS3_EE11_Alloc_nodeclIS3_EEPSt13_Rb_tree_nodeIS3_ERKT_,"axG",@progbits,_ZNKSt8_Rb_treeIPcSt4pairIKS0_iESt10_Select1stIS3_ESt4lessIS0_ESaIS3_EE11_Alloc_nodeclIS3_EEPSt13_Rb_tree_nodeIS3_ERKT_,comdat
	.weak	_ZNKSt8_Rb_treeIPcSt4pairIKS0_iESt10_Select1stIS3_ESt4lessIS0_ESaIS3_EE11_Alloc_nodeclIS3_EEPSt13_Rb_tree_nodeIS3_ERKT_
	.align	16, 0x90
	.type	_ZNKSt8_Rb_treeIPcSt4pairIKS0_iESt10_Select1stIS3_ESt4lessIS0_ESaIS3_EE11_Alloc_nodeclIS3_EEPSt13_Rb_tree_nodeIS3_ERKT_,@function
_ZNKSt8_Rb_treeIPcSt4pairIKS0_iESt10_Select1stIS3_ESt4lessIS0_ESaIS3_EE11_Alloc_nodeclIS3_EEPSt13_Rb_tree_nodeIS3_ERKT_: # @_ZNKSt8_Rb_treeIPcSt4pairIKS0_iESt10_Select1stIS3_ESt4lessIS0_ESaIS3_EE11_Alloc_nodeclIS3_EEPSt13_Rb_tree_nodeIS3_ERKT_
	.cfi_startproc
# BB#0:
	pushq	%rbp
.Ltmp278:
	.cfi_def_cfa_offset 16
.Ltmp279:
	.cfi_offset %rbp, -16
	movq	%rsp, %rbp
.Ltmp280:
	.cfi_def_cfa_register %rbp
	subq	$16, %rsp
	movq	%rdi, -8(%rbp)
	movq	%rsi, -16(%rbp)
	movq	-8(%rbp), %rax
	movq	(%rax), %rdi
	callq	_ZNSt8_Rb_treeIPcSt4pairIKS0_iESt10_Select1stIS3_ESt4lessIS0_ESaIS3_EE14_M_create_nodeERKS3_
	addq	$16, %rsp
	popq	%rbp
	retq
.Lfunc_end78:
	.size	_ZNKSt8_Rb_treeIPcSt4pairIKS0_iESt10_Select1stIS3_ESt4lessIS0_ESaIS3_EE11_Alloc_nodeclIS3_EEPSt13_Rb_tree_nodeIS3_ERKT_, .Lfunc_end78-_ZNKSt8_Rb_treeIPcSt4pairIKS0_iESt10_Select1stIS3_ESt4lessIS0_ESaIS3_EE11_Alloc_nodeclIS3_EEPSt13_Rb_tree_nodeIS3_ERKT_
	.cfi_endproc

	.section	.text._ZNSt8_Rb_treeIPcSt4pairIKS0_iESt10_Select1stIS3_ESt4lessIS0_ESaIS3_EE14_M_create_nodeERKS3_,"axG",@progbits,_ZNSt8_Rb_treeIPcSt4pairIKS0_iESt10_Select1stIS3_ESt4lessIS0_ESaIS3_EE14_M_create_nodeERKS3_,comdat
	.weak	_ZNSt8_Rb_treeIPcSt4pairIKS0_iESt10_Select1stIS3_ESt4lessIS0_ESaIS3_EE14_M_create_nodeERKS3_
	.align	16, 0x90
	.type	_ZNSt8_Rb_treeIPcSt4pairIKS0_iESt10_Select1stIS3_ESt4lessIS0_ESaIS3_EE14_M_create_nodeERKS3_,@function
_ZNSt8_Rb_treeIPcSt4pairIKS0_iESt10_Select1stIS3_ESt4lessIS0_ESaIS3_EE14_M_create_nodeERKS3_: # @_ZNSt8_Rb_treeIPcSt4pairIKS0_iESt10_Select1stIS3_ESt4lessIS0_ESaIS3_EE14_M_create_nodeERKS3_
	.cfi_startproc
# BB#0:
	pushq	%rbp
.Ltmp281:
	.cfi_def_cfa_offset 16
.Ltmp282:
	.cfi_offset %rbp, -16
	movq	%rsp, %rbp
.Ltmp283:
	.cfi_def_cfa_register %rbp
	pushq	%rbx
	subq	$24, %rsp
.Ltmp284:
	.cfi_offset %rbx, -24
	movq	%rdi, -16(%rbp)
	movq	%rsi, -24(%rbp)
	movq	-16(%rbp), %rbx
	movq	%rbx, %rdi
	callq	_ZNSt8_Rb_treeIPcSt4pairIKS0_iESt10_Select1stIS3_ESt4lessIS0_ESaIS3_EE11_M_get_nodeEv
	movq	%rax, -32(%rbp)
	movq	-24(%rbp), %rdx
	movq	%rbx, %rdi
	movq	%rax, %rsi
	callq	_ZNSt8_Rb_treeIPcSt4pairIKS0_iESt10_Select1stIS3_ESt4lessIS0_ESaIS3_EE17_M_construct_nodeEPSt13_Rb_tree_nodeIS3_ERKS3_
	movq	-32(%rbp), %rax
	addq	$24, %rsp
	popq	%rbx
	popq	%rbp
	retq
.Lfunc_end79:
	.size	_ZNSt8_Rb_treeIPcSt4pairIKS0_iESt10_Select1stIS3_ESt4lessIS0_ESaIS3_EE14_M_create_nodeERKS3_, .Lfunc_end79-_ZNSt8_Rb_treeIPcSt4pairIKS0_iESt10_Select1stIS3_ESt4lessIS0_ESaIS3_EE14_M_create_nodeERKS3_
	.cfi_endproc

	.section	.text._ZNSt8_Rb_treeIPcSt4pairIKS0_iESt10_Select1stIS3_ESt4lessIS0_ESaIS3_EE11_M_get_nodeEv,"axG",@progbits,_ZNSt8_Rb_treeIPcSt4pairIKS0_iESt10_Select1stIS3_ESt4lessIS0_ESaIS3_EE11_M_get_nodeEv,comdat
	.weak	_ZNSt8_Rb_treeIPcSt4pairIKS0_iESt10_Select1stIS3_ESt4lessIS0_ESaIS3_EE11_M_get_nodeEv
	.align	16, 0x90
	.type	_ZNSt8_Rb_treeIPcSt4pairIKS0_iESt10_Select1stIS3_ESt4lessIS0_ESaIS3_EE11_M_get_nodeEv,@function
_ZNSt8_Rb_treeIPcSt4pairIKS0_iESt10_Select1stIS3_ESt4lessIS0_ESaIS3_EE11_M_get_nodeEv: # @_ZNSt8_Rb_treeIPcSt4pairIKS0_iESt10_Select1stIS3_ESt4lessIS0_ESaIS3_EE11_M_get_nodeEv
	.cfi_startproc
# BB#0:
	pushq	%rbp
.Ltmp285:
	.cfi_def_cfa_offset 16
.Ltmp286:
	.cfi_offset %rbp, -16
	movq	%rsp, %rbp
.Ltmp287:
	.cfi_def_cfa_register %rbp
	subq	$16, %rsp
	movq	%rdi, -8(%rbp)
	callq	_ZNSt8_Rb_treeIPcSt4pairIKS0_iESt10_Select1stIS3_ESt4lessIS0_ESaIS3_EE21_M_get_Node_allocatorEv
	movl	$1, %esi
	movq	%rax, %rdi
	callq	_ZN9__gnu_cxx14__alloc_traitsISaISt13_Rb_tree_nodeISt4pairIKPciEEEE8allocateERS7_m
	addq	$16, %rsp
	popq	%rbp
	retq
.Lfunc_end80:
	.size	_ZNSt8_Rb_treeIPcSt4pairIKS0_iESt10_Select1stIS3_ESt4lessIS0_ESaIS3_EE11_M_get_nodeEv, .Lfunc_end80-_ZNSt8_Rb_treeIPcSt4pairIKS0_iESt10_Select1stIS3_ESt4lessIS0_ESaIS3_EE11_M_get_nodeEv
	.cfi_endproc

	.section	.text._ZN9__gnu_cxx14__alloc_traitsISaISt13_Rb_tree_nodeISt4pairIKPciEEEE8allocateERS7_m,"axG",@progbits,_ZN9__gnu_cxx14__alloc_traitsISaISt13_Rb_tree_nodeISt4pairIKPciEEEE8allocateERS7_m,comdat
	.weak	_ZN9__gnu_cxx14__alloc_traitsISaISt13_Rb_tree_nodeISt4pairIKPciEEEE8allocateERS7_m
	.align	16, 0x90
	.type	_ZN9__gnu_cxx14__alloc_traitsISaISt13_Rb_tree_nodeISt4pairIKPciEEEE8allocateERS7_m,@function
_ZN9__gnu_cxx14__alloc_traitsISaISt13_Rb_tree_nodeISt4pairIKPciEEEE8allocateERS7_m: # @_ZN9__gnu_cxx14__alloc_traitsISaISt13_Rb_tree_nodeISt4pairIKPciEEEE8allocateERS7_m
	.cfi_startproc
# BB#0:
	pushq	%rbp
.Ltmp288:
	.cfi_def_cfa_offset 16
.Ltmp289:
	.cfi_offset %rbp, -16
	movq	%rsp, %rbp
.Ltmp290:
	.cfi_def_cfa_register %rbp
	subq	$16, %rsp
	movq	%rdi, -8(%rbp)
	movq	%rsi, -16(%rbp)
	movq	-8(%rbp), %rdi
	xorl	%edx, %edx
	callq	_ZN9__gnu_cxx13new_allocatorISt13_Rb_tree_nodeISt4pairIKPciEEE8allocateEmPKv
	addq	$16, %rsp
	popq	%rbp
	retq
.Lfunc_end81:
	.size	_ZN9__gnu_cxx14__alloc_traitsISaISt13_Rb_tree_nodeISt4pairIKPciEEEE8allocateERS7_m, .Lfunc_end81-_ZN9__gnu_cxx14__alloc_traitsISaISt13_Rb_tree_nodeISt4pairIKPciEEEE8allocateERS7_m
	.cfi_endproc

	.section	.text._ZN9__gnu_cxx13new_allocatorISt13_Rb_tree_nodeISt4pairIKPciEEE8allocateEmPKv,"axG",@progbits,_ZN9__gnu_cxx13new_allocatorISt13_Rb_tree_nodeISt4pairIKPciEEE8allocateEmPKv,comdat
	.weak	_ZN9__gnu_cxx13new_allocatorISt13_Rb_tree_nodeISt4pairIKPciEEE8allocateEmPKv
	.align	16, 0x90
	.type	_ZN9__gnu_cxx13new_allocatorISt13_Rb_tree_nodeISt4pairIKPciEEE8allocateEmPKv,@function
_ZN9__gnu_cxx13new_allocatorISt13_Rb_tree_nodeISt4pairIKPciEEE8allocateEmPKv: # @_ZN9__gnu_cxx13new_allocatorISt13_Rb_tree_nodeISt4pairIKPciEEE8allocateEmPKv
	.cfi_startproc
# BB#0:
	pushq	%rbp
.Ltmp291:
	.cfi_def_cfa_offset 16
.Ltmp292:
	.cfi_offset %rbp, -16
	movq	%rsp, %rbp
.Ltmp293:
	.cfi_def_cfa_register %rbp
	pushq	%rbx
	subq	$24, %rsp
.Ltmp294:
	.cfi_offset %rbx, -24
	movq	%rdi, -16(%rbp)
	movq	%rsi, -24(%rbp)
	movq	%rdx, -32(%rbp)
	movq	-16(%rbp), %rdi
	movq	-24(%rbp), %rbx
	callq	_ZNK9__gnu_cxx13new_allocatorISt13_Rb_tree_nodeISt4pairIKPciEEE8max_sizeEv
	cmpq	%rax, %rbx
	ja	.LBB82_2
# BB#1:
	movq	-24(%rbp), %rax
	shlq	$4, %rax
	leaq	(%rax,%rax,2), %rdi
	callq	_Znwm
	addq	$24, %rsp
	popq	%rbx
	popq	%rbp
	retq
.LBB82_2:
	callq	_ZSt17__throw_bad_allocv
.Lfunc_end82:
	.size	_ZN9__gnu_cxx13new_allocatorISt13_Rb_tree_nodeISt4pairIKPciEEE8allocateEmPKv, .Lfunc_end82-_ZN9__gnu_cxx13new_allocatorISt13_Rb_tree_nodeISt4pairIKPciEEE8allocateEmPKv
	.cfi_endproc

	.section	.text._ZNK9__gnu_cxx13new_allocatorISt13_Rb_tree_nodeISt4pairIKPciEEE8max_sizeEv,"axG",@progbits,_ZNK9__gnu_cxx13new_allocatorISt13_Rb_tree_nodeISt4pairIKPciEEE8max_sizeEv,comdat
	.weak	_ZNK9__gnu_cxx13new_allocatorISt13_Rb_tree_nodeISt4pairIKPciEEE8max_sizeEv
	.align	16, 0x90
	.type	_ZNK9__gnu_cxx13new_allocatorISt13_Rb_tree_nodeISt4pairIKPciEEE8max_sizeEv,@function
_ZNK9__gnu_cxx13new_allocatorISt13_Rb_tree_nodeISt4pairIKPciEEE8max_sizeEv: # @_ZNK9__gnu_cxx13new_allocatorISt13_Rb_tree_nodeISt4pairIKPciEEE8max_sizeEv
	.cfi_startproc
# BB#0:
	pushq	%rbp
.Ltmp295:
	.cfi_def_cfa_offset 16
.Ltmp296:
	.cfi_offset %rbp, -16
	movq	%rsp, %rbp
.Ltmp297:
	.cfi_def_cfa_register %rbp
	movq	%rdi, -8(%rbp)
	movabsq	$384307168202282325, %rax # imm = 0x555555555555555
	popq	%rbp
	retq
.Lfunc_end83:
	.size	_ZNK9__gnu_cxx13new_allocatorISt13_Rb_tree_nodeISt4pairIKPciEEE8max_sizeEv, .Lfunc_end83-_ZNK9__gnu_cxx13new_allocatorISt13_Rb_tree_nodeISt4pairIKPciEEE8max_sizeEv
	.cfi_endproc

	.section	.text._ZNSt8_Rb_treeIPcSt4pairIKS0_iESt10_Select1stIS3_ESt4lessIS0_ESaIS3_EE17_M_construct_nodeEPSt13_Rb_tree_nodeIS3_ERKS3_,"axG",@progbits,_ZNSt8_Rb_treeIPcSt4pairIKS0_iESt10_Select1stIS3_ESt4lessIS0_ESaIS3_EE17_M_construct_nodeEPSt13_Rb_tree_nodeIS3_ERKS3_,comdat
	.weak	_ZNSt8_Rb_treeIPcSt4pairIKS0_iESt10_Select1stIS3_ESt4lessIS0_ESaIS3_EE17_M_construct_nodeEPSt13_Rb_tree_nodeIS3_ERKS3_
	.align	16, 0x90
	.type	_ZNSt8_Rb_treeIPcSt4pairIKS0_iESt10_Select1stIS3_ESt4lessIS0_ESaIS3_EE17_M_construct_nodeEPSt13_Rb_tree_nodeIS3_ERKS3_,@function
_ZNSt8_Rb_treeIPcSt4pairIKS0_iESt10_Select1stIS3_ESt4lessIS0_ESaIS3_EE17_M_construct_nodeEPSt13_Rb_tree_nodeIS3_ERKS3_: # @_ZNSt8_Rb_treeIPcSt4pairIKS0_iESt10_Select1stIS3_ESt4lessIS0_ESaIS3_EE17_M_construct_nodeEPSt13_Rb_tree_nodeIS3_ERKS3_
.Lfunc_begin3:
	.cfi_startproc
	.cfi_personality 3, __gxx_personality_v0
	.cfi_lsda 3, .Lexception3
# BB#0:
	pushq	%rbp
.Ltmp314:
	.cfi_def_cfa_offset 16
.Ltmp315:
	.cfi_offset %rbp, -16
	movq	%rsp, %rbp
.Ltmp316:
	.cfi_def_cfa_register %rbp
	pushq	%rbx
	subq	$56, %rsp
.Ltmp317:
	.cfi_offset %rbx, -24
	movq	%rdi, -16(%rbp)
	movq	%rsi, -24(%rbp)
	movq	%rdx, -32(%rbp)
	movq	-16(%rbp), %rbx
.Ltmp298:
	leaq	-40(%rbp), %rdi
	movq	%rbx, %rsi
	callq	_ZNKSt8_Rb_treeIPcSt4pairIKS0_iESt10_Select1stIS3_ESt4lessIS0_ESaIS3_EE13get_allocatorEv
.Ltmp299:
# BB#1:
	movq	-24(%rbp), %rdi
.Ltmp301:
	callq	_ZNSt13_Rb_tree_nodeISt4pairIKPciEE9_M_valptrEv
.Ltmp302:
# BB#2:
	movq	-32(%rbp), %rdx
.Ltmp303:
	leaq	-40(%rbp), %rdi
	movq	%rax, %rsi
	callq	_ZN9__gnu_cxx13new_allocatorISt4pairIKPciEE9constructEPS4_RKS4_
.Ltmp304:
# BB#3:
	leaq	-40(%rbp), %rdi
	callq	_ZNSaISt4pairIKPciEED2Ev
	addq	$56, %rsp
	popq	%rbx
	popq	%rbp
	retq
.LBB84_5:
.Ltmp305:
	movq	%rax, -48(%rbp)
	movl	%edx, -52(%rbp)
	leaq	-40(%rbp), %rdi
	callq	_ZNSaISt4pairIKPciEED2Ev
	jmp	.LBB84_6
.LBB84_4:
.Ltmp300:
	movq	%rax, -48(%rbp)
	movl	%edx, -52(%rbp)
.LBB84_6:
	movq	-48(%rbp), %rdi
	callq	__cxa_begin_catch
	movq	-24(%rbp), %rsi
.Ltmp306:
	movq	%rbx, %rdi
	callq	_ZNSt8_Rb_treeIPcSt4pairIKS0_iESt10_Select1stIS3_ESt4lessIS0_ESaIS3_EE11_M_put_nodeEPSt13_Rb_tree_nodeIS3_E
.Ltmp307:
# BB#7:
.Ltmp308:
	callq	__cxa_rethrow
.Ltmp309:
# BB#11:
.LBB84_8:
.Ltmp310:
	movq	%rax, -48(%rbp)
	movl	%edx, -52(%rbp)
.Ltmp311:
	callq	__cxa_end_catch
.Ltmp312:
# BB#9:
	movq	-48(%rbp), %rdi
	callq	_Unwind_Resume
.LBB84_10:
.Ltmp313:
	movq	%rax, %rdi
	callq	__clang_call_terminate
.Lfunc_end84:
	.size	_ZNSt8_Rb_treeIPcSt4pairIKS0_iESt10_Select1stIS3_ESt4lessIS0_ESaIS3_EE17_M_construct_nodeEPSt13_Rb_tree_nodeIS3_ERKS3_, .Lfunc_end84-_ZNSt8_Rb_treeIPcSt4pairIKS0_iESt10_Select1stIS3_ESt4lessIS0_ESaIS3_EE17_M_construct_nodeEPSt13_Rb_tree_nodeIS3_ERKS3_
	.cfi_endproc
	.section	.gcc_except_table,"a",@progbits
	.align	4
GCC_except_table84:
.Lexception3:
	.byte	255                     # @LPStart Encoding = omit
	.byte	3                       # @TType Encoding = udata4
	.asciz	"\326\200\200"          # @TType base offset
	.byte	3                       # Call site Encoding = udata4
	.byte	78                      # Call site table length
	.long	.Ltmp298-.Lfunc_begin3  # >> Call Site 1 <<
	.long	.Ltmp299-.Ltmp298       #   Call between .Ltmp298 and .Ltmp299
	.long	.Ltmp300-.Lfunc_begin3  #     jumps to .Ltmp300
	.byte	1                       #   On action: 1
	.long	.Ltmp301-.Lfunc_begin3  # >> Call Site 2 <<
	.long	.Ltmp304-.Ltmp301       #   Call between .Ltmp301 and .Ltmp304
	.long	.Ltmp305-.Lfunc_begin3  #     jumps to .Ltmp305
	.byte	1                       #   On action: 1
	.long	.Ltmp304-.Lfunc_begin3  # >> Call Site 3 <<
	.long	.Ltmp306-.Ltmp304       #   Call between .Ltmp304 and .Ltmp306
	.long	0                       #     has no landing pad
	.byte	0                       #   On action: cleanup
	.long	.Ltmp306-.Lfunc_begin3  # >> Call Site 4 <<
	.long	.Ltmp309-.Ltmp306       #   Call between .Ltmp306 and .Ltmp309
	.long	.Ltmp310-.Lfunc_begin3  #     jumps to .Ltmp310
	.byte	0                       #   On action: cleanup
	.long	.Ltmp311-.Lfunc_begin3  # >> Call Site 5 <<
	.long	.Ltmp312-.Ltmp311       #   Call between .Ltmp311 and .Ltmp312
	.long	.Ltmp313-.Lfunc_begin3  #     jumps to .Ltmp313
	.byte	1                       #   On action: 1
	.long	.Ltmp312-.Lfunc_begin3  # >> Call Site 6 <<
	.long	.Lfunc_end84-.Ltmp312   #   Call between .Ltmp312 and .Lfunc_end84
	.long	0                       #     has no landing pad
	.byte	0                       #   On action: cleanup
	.byte	1                       # >> Action Record 1 <<
                                        #   Catch TypeInfo 1
	.byte	0                       #   No further actions
                                        # >> Catch TypeInfos <<
	.long	0                       # TypeInfo 1
	.align	4

	.section	.text._ZN9__gnu_cxx13new_allocatorISt4pairIKPciEE9constructEPS4_RKS4_,"axG",@progbits,_ZN9__gnu_cxx13new_allocatorISt4pairIKPciEE9constructEPS4_RKS4_,comdat
	.weak	_ZN9__gnu_cxx13new_allocatorISt4pairIKPciEE9constructEPS4_RKS4_
	.align	16, 0x90
	.type	_ZN9__gnu_cxx13new_allocatorISt4pairIKPciEE9constructEPS4_RKS4_,@function
_ZN9__gnu_cxx13new_allocatorISt4pairIKPciEE9constructEPS4_RKS4_: # @_ZN9__gnu_cxx13new_allocatorISt4pairIKPciEE9constructEPS4_RKS4_
	.cfi_startproc
# BB#0:
	pushq	%rbp
.Ltmp318:
	.cfi_def_cfa_offset 16
.Ltmp319:
	.cfi_offset %rbp, -16
	movq	%rsp, %rbp
.Ltmp320:
	.cfi_def_cfa_register %rbp
	movq	%rdi, -8(%rbp)
	movq	%rsi, -16(%rbp)
	movq	%rdx, -24(%rbp)
	movq	-16(%rbp), %rax
	movups	(%rdx), %xmm0
	movups	%xmm0, (%rax)
	popq	%rbp
	retq
.Lfunc_end85:
	.size	_ZN9__gnu_cxx13new_allocatorISt4pairIKPciEE9constructEPS4_RKS4_, .Lfunc_end85-_ZN9__gnu_cxx13new_allocatorISt4pairIKPciEE9constructEPS4_RKS4_
	.cfi_endproc

	.section	.text.__clang_call_terminate,"axG",@progbits,__clang_call_terminate,comdat
	.hidden	__clang_call_terminate
	.weak	__clang_call_terminate
	.align	16, 0x90
	.type	__clang_call_terminate,@function
__clang_call_terminate:                 # @__clang_call_terminate
# BB#0:
	pushq	%rax
	callq	__cxa_begin_catch
	callq	_ZSt9terminatev
.Lfunc_end86:
	.size	__clang_call_terminate, .Lfunc_end86-__clang_call_terminate

	.text
	.globl	mz_adler32
	.align	16, 0x90
	.type	mz_adler32,@function
mz_adler32:                             # @mz_adler32
	.cfi_startproc
# BB#0:
	pushq	%rbp
.Ltmp321:
	.cfi_def_cfa_offset 16
.Ltmp322:
	.cfi_offset %rbp, -16
	movq	%rsp, %rbp
.Ltmp323:
	.cfi_def_cfa_register %rbp
	pushq	%r15
	pushq	%r14
	pushq	%rbx
	subq	$56, %rsp
.Ltmp324:
	.cfi_offset %rbx, -40
.Ltmp325:
	.cfi_offset %r14, -32
.Ltmp326:
	.cfi_offset %r15, -24
	movq	%rdx, %r14
	movq	%rsi, %r15
	movq	%rdi, %rbx
	movl	$.L__unnamed_1, %edi
	callq	count
	movl	$.L__unnamed_2, %edi
	callq	count
	movl	$.L__unnamed_3, %edi
	callq	count
	movl	$.L__unnamed_4, %edi
	callq	count
	movl	$.L__unnamed_5, %edi
	callq	count
	movl	$.L__unnamed_6, %edi
	callq	count
	movl	$.L__unnamed_7, %edi
	callq	count
	movl	$.L__unnamed_8, %edi
	callq	count
	movl	$.L__unnamed_9, %edi
	callq	count
	movq	%rbx, -40(%rbp)
	movl	$.L__unnamed_10, %edi
	callq	count
	movq	%r15, -48(%rbp)
	movl	$.L__unnamed_11, %edi
	callq	count
	movq	%r14, -56(%rbp)
	movl	$.L__unnamed_12, %edi
	callq	count
	movzwl	-40(%rbp), %ebx
	movl	$.L__unnamed_13, %edi
	callq	count
	movl	$.L__unnamed_14, %edi
	callq	count
	movl	$.L__unnamed_15, %edi
	callq	count
	movl	%ebx, -64(%rbp)
	movl	$.L__unnamed_16, %edi
	callq	count
	movq	-40(%rbp), %rbx
	movl	$.L__unnamed_17, %edi
	callq	count
	shrq	$16, %rbx
	movl	$.L__unnamed_18, %edi
	callq	count
	movl	$.L__unnamed_19, %edi
	callq	count
	movl	%ebx, -68(%rbp)
	movl	$.L__unnamed_20, %edi
	callq	count
	movq	-56(%rbp), %rbx
	movl	$.L__unnamed_21, %edi
	callq	count
	movq	%rbx, %rax
	shrq	$4, %rax
	movabsq	$106321291491121335, %rcx # imm = 0x179BAA6BB6398B7
	mulq	%rcx
	shrq	%rdx
	imulq	$5552, %rdx, %rax       # imm = 0x15B0
	subq	%rax, %rbx
	movl	$.L__unnamed_22, %edi
	callq	count
	movq	%rbx, -80(%rbp)
	movl	$.L__unnamed_23, %edi
	callq	count
	movq	-48(%rbp), %r14
	movl	$.L__unnamed_24, %edi
	callq	count
	cmpq	$0, %r14
	setne	%bl
	movl	$.L__unnamed_25, %edi
	callq	count
	movzbl	%bl, %esi
	movl	$.L__unnamed_26, %edi
	callq	check
	movl	$.L__unnamed_27, %edi
	callq	count
	cmpq	$0, %r14
	je	.LBB87_1
# BB#2:
	movl	$.L__unnamed_28, %edi
	callq	count
	movl	$2147975281, %r14d      # imm = 0x80078071
	jmp	.LBB87_3
	.align	16, 0x90
.LBB87_10:                              #   in Loop: Header=BB87_3 Depth=1
	movl	$.L__unnamed_29, %edi
	callq	count
	movl	-64(%rbp), %ebx
	movl	$.L__unnamed_30, %edi
	callq	count
	movq	%rbx, %rax
	imulq	%r14, %rax
	shrq	$47, %rax
	imull	$65521, %eax, %eax      # imm = 0xFFF1
	subl	%eax, %ebx
	movl	$.L__unnamed_31, %edi
	callq	count
	movl	%ebx, -64(%rbp)
	movl	$.L__unnamed_32, %edi
	callq	count
	movl	-68(%rbp), %ebx
	movl	$.L__unnamed_33, %edi
	callq	count
	movq	%rbx, %rax
	imulq	%r14, %rax
	shrq	$47, %rax
	imull	$65521, %eax, %eax      # imm = 0xFFF1
	subl	%eax, %ebx
	movl	$.L__unnamed_34, %edi
	callq	count
	movl	%ebx, -68(%rbp)
	movl	$.L__unnamed_35, %edi
	callq	count
	movq	-80(%rbp), %r15
	movl	$.L__unnamed_36, %edi
	callq	count
	movq	-56(%rbp), %rbx
	movl	$.L__unnamed_37, %edi
	callq	count
	subq	%r15, %rbx
	movl	$.L__unnamed_38, %edi
	callq	count
	movq	%rbx, -56(%rbp)
	movl	$.L__unnamed_39, %edi
	callq	count
	movq	$5552, -80(%rbp)        # imm = 0x15B0
	movl	$.L__unnamed_40, %edi
	callq	count
.LBB87_3:                               # =>This Loop Header: Depth=1
                                        #     Child Loop BB87_5 Depth 2
                                        #     Child Loop BB87_8 Depth 2
	movl	$.L__unnamed_41, %edi
	callq	count
	movq	-56(%rbp), %rbx
	movl	$.L__unnamed_42, %edi
	callq	count
	cmpq	$0, %rbx
	setne	%r15b
	movl	$.L__unnamed_43, %edi
	callq	count
	movzbl	%r15b, %esi
	movl	$.L__unnamed_44, %edi
	callq	check
	movl	$.L__unnamed_45, %edi
	callq	count
	cmpq	$0, %rbx
	je	.LBB87_11
# BB#4:                                 #   in Loop: Header=BB87_3 Depth=1
	movl	$.L__unnamed_46, %edi
	callq	count
	movl	$0, -60(%rbp)
	movl	$.L__unnamed_47, %edi
	jmp	.LBB87_5
	.align	16, 0x90
.LBB87_6:                               #   in Loop: Header=BB87_5 Depth=2
	movl	$.L__unnamed_48, %edi
	callq	count
	movq	-48(%rbp), %rbx
	movl	$.L__unnamed_49, %edi
	callq	count
	movl	$.L__unnamed_50, %edi
	callq	count
	movzbl	(%rbx), %ebx
	movl	$.L__unnamed_51, %edi
	callq	count
	movl	$.L__unnamed_52, %edi
	callq	count
	addl	-64(%rbp), %ebx
	movl	$.L__unnamed_53, %edi
	callq	count
	movl	$.L__unnamed_54, %edi
	callq	count
	movl	%ebx, -64(%rbp)
	movl	$.L__unnamed_55, %edi
	callq	count
	movl	-64(%rbp), %ebx
	movl	$.L__unnamed_56, %edi
	callq	count
	addl	-68(%rbp), %ebx
	movl	$.L__unnamed_57, %edi
	callq	count
	movl	$.L__unnamed_58, %edi
	callq	count
	movl	%ebx, -68(%rbp)
	movl	$.L__unnamed_59, %edi
	callq	count
	movq	-48(%rbp), %rbx
	movl	$.L__unnamed_60, %edi
	callq	count
	movl	$.L__unnamed_61, %edi
	callq	count
	movzbl	1(%rbx), %ebx
	movl	$.L__unnamed_62, %edi
	callq	count
	movl	$.L__unnamed_63, %edi
	callq	count
	addl	-64(%rbp), %ebx
	movl	$.L__unnamed_64, %edi
	callq	count
	movl	$.L__unnamed_65, %edi
	callq	count
	movl	%ebx, -64(%rbp)
	movl	$.L__unnamed_66, %edi
	callq	count
	movl	-64(%rbp), %ebx
	movl	$.L__unnamed_67, %edi
	callq	count
	addl	-68(%rbp), %ebx
	movl	$.L__unnamed_68, %edi
	callq	count
	movl	$.L__unnamed_69, %edi
	callq	count
	movl	%ebx, -68(%rbp)
	movl	$.L__unnamed_70, %edi
	callq	count
	movq	-48(%rbp), %rbx
	movl	$.L__unnamed_71, %edi
	callq	count
	movl	$.L__unnamed_72, %edi
	callq	count
	movzbl	2(%rbx), %ebx
	movl	$.L__unnamed_73, %edi
	callq	count
	movl	$.L__unnamed_74, %edi
	callq	count
	addl	-64(%rbp), %ebx
	movl	$.L__unnamed_75, %edi
	callq	count
	movl	$.L__unnamed_76, %edi
	callq	count
	movl	%ebx, -64(%rbp)
	movl	$.L__unnamed_77, %edi
	callq	count
	movl	-64(%rbp), %ebx
	movl	$.L__unnamed_78, %edi
	callq	count
	addl	-68(%rbp), %ebx
	movl	$.L__unnamed_79, %edi
	callq	count
	movl	$.L__unnamed_80, %edi
	callq	count
	movl	%ebx, -68(%rbp)
	movl	$.L__unnamed_81, %edi
	callq	count
	movq	-48(%rbp), %rbx
	movl	$.L__unnamed_82, %edi
	callq	count
	movl	$.L__unnamed_83, %edi
	callq	count
	movzbl	3(%rbx), %ebx
	movl	$.L__unnamed_84, %edi
	callq	count
	movl	$.L__unnamed_85, %edi
	callq	count
	addl	-64(%rbp), %ebx
	movl	$.L__unnamed_86, %edi
	callq	count
	movl	$.L__unnamed_87, %edi
	callq	count
	movl	%ebx, -64(%rbp)
	movl	$.L__unnamed_88, %edi
	callq	count
	movl	-64(%rbp), %ebx
	movl	$.L__unnamed_89, %edi
	callq	count
	addl	-68(%rbp), %ebx
	movl	$.L__unnamed_90, %edi
	callq	count
	movl	$.L__unnamed_91, %edi
	callq	count
	movl	%ebx, -68(%rbp)
	movl	$.L__unnamed_92, %edi
	callq	count
	movq	-48(%rbp), %rbx
	movl	$.L__unnamed_93, %edi
	callq	count
	movl	$.L__unnamed_94, %edi
	callq	count
	movzbl	4(%rbx), %ebx
	movl	$.L__unnamed_95, %edi
	callq	count
	movl	$.L__unnamed_96, %edi
	callq	count
	addl	-64(%rbp), %ebx
	movl	$.L__unnamed_97, %edi
	callq	count
	movl	$.L__unnamed_98, %edi
	callq	count
	movl	%ebx, -64(%rbp)
	movl	$.L__unnamed_99, %edi
	callq	count
	movl	-64(%rbp), %ebx
	movl	$.L__unnamed_100, %edi
	callq	count
	addl	-68(%rbp), %ebx
	movl	$.L__unnamed_101, %edi
	callq	count
	movl	$.L__unnamed_102, %edi
	callq	count
	movl	%ebx, -68(%rbp)
	movl	$.L__unnamed_103, %edi
	callq	count
	movq	-48(%rbp), %rbx
	movl	$.L__unnamed_104, %edi
	callq	count
	movl	$.L__unnamed_105, %edi
	callq	count
	movzbl	5(%rbx), %ebx
	movl	$.L__unnamed_106, %edi
	callq	count
	movl	$.L__unnamed_107, %edi
	callq	count
	addl	-64(%rbp), %ebx
	movl	$.L__unnamed_108, %edi
	callq	count
	movl	$.L__unnamed_109, %edi
	callq	count
	movl	%ebx, -64(%rbp)
	movl	$.L__unnamed_110, %edi
	callq	count
	movl	-64(%rbp), %ebx
	movl	$.L__unnamed_111, %edi
	callq	count
	addl	-68(%rbp), %ebx
	movl	$.L__unnamed_112, %edi
	callq	count
	movl	$.L__unnamed_113, %edi
	callq	count
	movl	%ebx, -68(%rbp)
	movl	$.L__unnamed_114, %edi
	callq	count
	movq	-48(%rbp), %rbx
	movl	$.L__unnamed_115, %edi
	callq	count
	movl	$.L__unnamed_116, %edi
	callq	count
	movzbl	6(%rbx), %ebx
	movl	$.L__unnamed_117, %edi
	callq	count
	movl	$.L__unnamed_118, %edi
	callq	count
	addl	-64(%rbp), %ebx
	movl	$.L__unnamed_119, %edi
	callq	count
	movl	$.L__unnamed_120, %edi
	callq	count
	movl	%ebx, -64(%rbp)
	movl	$.L__unnamed_121, %edi
	callq	count
	movl	-64(%rbp), %ebx
	movl	$.L__unnamed_122, %edi
	callq	count
	addl	-68(%rbp), %ebx
	movl	$.L__unnamed_123, %edi
	callq	count
	movl	$.L__unnamed_124, %edi
	callq	count
	movl	%ebx, -68(%rbp)
	movl	$.L__unnamed_125, %edi
	callq	count
	movq	-48(%rbp), %rbx
	movl	$.L__unnamed_126, %edi
	callq	count
	movl	$.L__unnamed_127, %edi
	callq	count
	movzbl	7(%rbx), %ebx
	movl	$.L__unnamed_128, %edi
	callq	count
	movl	$.L__unnamed_129, %edi
	callq	count
	addl	-64(%rbp), %ebx
	movl	$.L__unnamed_130, %edi
	callq	count
	movl	$.L__unnamed_131, %edi
	callq	count
	movl	%ebx, -64(%rbp)
	movl	$.L__unnamed_132, %edi
	callq	count
	movl	-64(%rbp), %ebx
	movl	$.L__unnamed_133, %edi
	callq	count
	addl	-68(%rbp), %ebx
	movl	$.L__unnamed_134, %edi
	callq	count
	movl	$.L__unnamed_135, %edi
	callq	count
	movl	%ebx, -68(%rbp)
	movl	$.L__unnamed_136, %edi
	callq	count
	movl	$.L__unnamed_137, %edi
	callq	count
	movl	-60(%rbp), %ebx
	movl	$.L__unnamed_138, %edi
	callq	count
	addl	$8, %ebx
	movl	$.L__unnamed_139, %edi
	callq	count
	movl	%ebx, -60(%rbp)
	movl	$.L__unnamed_140, %edi
	callq	count
	movq	-48(%rbp), %rbx
	movl	$.L__unnamed_141, %edi
	callq	count
	addq	$8, %rbx
	movl	$.L__unnamed_142, %edi
	callq	count
	movq	%rbx, -48(%rbp)
	movl	$.L__unnamed_143, %edi
.LBB87_5:                               #   Parent Loop BB87_3 Depth=1
                                        # =>  This Inner Loop Header: Depth=2
	callq	count
	movl	$.L__unnamed_144, %edi
	callq	count
	movl	-60(%rbp), %ebx
	movl	$.L__unnamed_145, %edi
	callq	count
	addl	$7, %ebx
	movl	$.L__unnamed_146, %edi
	callq	count
	movl	$.L__unnamed_147, %edi
	callq	count
	movq	-80(%rbp), %r15
	movl	$.L__unnamed_148, %edi
	callq	count
	movl	$.L__unnamed_149, %edi
	callq	count
	cmpq	%r15, %rbx
	sbbl	%esi, %esi
	andl	$1, %esi
	movl	$.L__unnamed_150, %edi
	callq	check
	movl	$.L__unnamed_151, %edi
	callq	count
	cmpq	%r15, %rbx
	jb	.LBB87_6
# BB#7:                                 #   in Loop: Header=BB87_3 Depth=1
	movl	$.L__unnamed_152, %edi
	jmp	.LBB87_8
	.align	16, 0x90
.LBB87_9:                               #   in Loop: Header=BB87_8 Depth=2
	movl	$.L__unnamed_153, %edi
	callq	count
	movq	-48(%rbp), %rbx
	movl	$.L__unnamed_154, %edi
	callq	count
	leaq	1(%rbx), %r15
	movl	$.L__unnamed_155, %edi
	callq	count
	movq	%r15, -48(%rbp)
	movl	$.L__unnamed_156, %edi
	callq	count
	movzbl	(%rbx), %ebx
	movl	$.L__unnamed_157, %edi
	callq	count
	movl	$.L__unnamed_158, %edi
	callq	count
	addl	-64(%rbp), %ebx
	movl	$.L__unnamed_159, %edi
	callq	count
	movl	$.L__unnamed_160, %edi
	callq	count
	movl	%ebx, -64(%rbp)
	movl	$.L__unnamed_161, %edi
	callq	count
	movl	-64(%rbp), %ebx
	movl	$.L__unnamed_162, %edi
	callq	count
	addl	-68(%rbp), %ebx
	movl	$.L__unnamed_163, %edi
	callq	count
	movl	$.L__unnamed_164, %edi
	callq	count
	movl	%ebx, -68(%rbp)
	movl	$.L__unnamed_165, %edi
	callq	count
	movl	$.L__unnamed_166, %edi
	callq	count
	movl	-60(%rbp), %ebx
	movl	$.L__unnamed_167, %edi
	callq	count
	incl	%ebx
	movl	$.L__unnamed_168, %edi
	callq	count
	movl	%ebx, -60(%rbp)
	movl	$.L__unnamed_169, %edi
.LBB87_8:                               #   Parent Loop BB87_3 Depth=1
                                        # =>  This Inner Loop Header: Depth=2
	callq	count
	movl	$.L__unnamed_170, %edi
	callq	count
	movl	-60(%rbp), %r15d
	movl	$.L__unnamed_171, %edi
	callq	count
	movl	$.L__unnamed_172, %edi
	callq	count
	movq	-80(%rbp), %rbx
	movl	$.L__unnamed_173, %edi
	callq	count
	movl	$.L__unnamed_174, %edi
	callq	count
	cmpq	%rbx, %r15
	sbbl	%esi, %esi
	andl	$1, %esi
	movl	$.L__unnamed_175, %edi
	callq	check
	movl	$.L__unnamed_176, %edi
	callq	count
	cmpq	%rbx, %r15
	jb	.LBB87_9
	jmp	.LBB87_10
.LBB87_11:
	movl	$.L__unnamed_177, %edi
	callq	count
	movl	-68(%rbp), %ebx
	movl	$.L__unnamed_178, %edi
	callq	count
	shll	$16, %ebx
	movl	$.L__unnamed_179, %edi
	callq	count
	addl	-64(%rbp), %ebx
	movl	$.L__unnamed_180, %edi
	callq	count
	movl	$.L__unnamed_181, %edi
	callq	count
	movl	$.L__unnamed_182, %edi
	callq	count
	movq	%rbx, -32(%rbp)
	movl	$.L__unnamed_183, %edi
	jmp	.LBB87_12
.LBB87_1:
	movl	$.L__unnamed_184, %edi
	callq	count
	movq	$1, -32(%rbp)
	movl	$.L__unnamed_185, %edi
.LBB87_12:
	callq	count
	movl	$.L__unnamed_186, %edi
	callq	count
	movq	-32(%rbp), %rbx
	movl	$.L__unnamed_187, %edi
	callq	count
	movq	%rbx, %rax
	addq	$56, %rsp
	popq	%rbx
	popq	%r14
	popq	%r15
	popq	%rbp
	retq
.Lfunc_end87:
	.size	mz_adler32, .Lfunc_end87-mz_adler32
	.cfi_endproc

	.globl	mz_crc32
	.align	16, 0x90
	.type	mz_crc32,@function
mz_crc32:                               # @mz_crc32
	.cfi_startproc
# BB#0:
	pushq	%rbp
.Ltmp327:
	.cfi_def_cfa_offset 16
.Ltmp328:
	.cfi_offset %rbp, -16
	movq	%rsp, %rbp
.Ltmp329:
	.cfi_def_cfa_register %rbp
	pushq	%r15
	pushq	%r14
	pushq	%rbx
	subq	$40, %rsp
.Ltmp330:
	.cfi_offset %rbx, -40
.Ltmp331:
	.cfi_offset %r14, -32
.Ltmp332:
	.cfi_offset %r15, -24
	movq	%rdx, %r14
	movq	%rsi, %r15
	movq	%rdi, %rbx
	movl	$.L__unnamed_188, %edi
	callq	count
	movl	$.L__unnamed_189, %edi
	callq	count
	movl	$.L__unnamed_190, %edi
	callq	count
	movl	$.L__unnamed_191, %edi
	callq	count
	movl	$.L__unnamed_192, %edi
	callq	count
	movl	$.L__unnamed_193, %edi
	callq	count
	movl	$.L__unnamed_194, %edi
	callq	count
	movq	%rbx, -40(%rbp)
	movl	$.L__unnamed_195, %edi
	callq	count
	movq	%r15, -48(%rbp)
	movl	$.L__unnamed_196, %edi
	callq	count
	movq	%r14, -56(%rbp)
	movl	$.L__unnamed_197, %edi
	callq	count
	movl	-40(%rbp), %ebx
	movl	$.L__unnamed_198, %edi
	callq	count
	movl	$.L__unnamed_199, %edi
	callq	count
	movl	%ebx, -60(%rbp)
	movl	$.L__unnamed_200, %edi
	callq	count
	movq	-48(%rbp), %r14
	movl	$.L__unnamed_201, %edi
	callq	count
	cmpq	$0, %r14
	setne	%bl
	movl	$.L__unnamed_202, %edi
	callq	count
	movzbl	%bl, %esi
	movl	$.L__unnamed_203, %edi
	callq	check
	movl	$.L__unnamed_204, %edi
	callq	count
	cmpq	$0, %r14
	je	.LBB88_1
# BB#2:
	movl	$.L__unnamed_205, %edi
	callq	count
	movl	-60(%rbp), %ebx
	movl	$.L__unnamed_206, %edi
	callq	count
	notl	%ebx
	movl	$.L__unnamed_207, %edi
	callq	count
	movl	%ebx, -60(%rbp)
	movl	$.L__unnamed_208, %edi
	jmp	.LBB88_3
	.align	16, 0x90
.LBB88_4:                               #   in Loop: Header=BB88_3 Depth=1
	movl	$.L__unnamed_209, %edi
	callq	count
	movq	-48(%rbp), %rbx
	movl	$.L__unnamed_210, %edi
	callq	count
	leaq	1(%rbx), %r14
	movl	$.L__unnamed_211, %edi
	callq	count
	movq	%r14, -48(%rbp)
	movl	$.L__unnamed_212, %edi
	callq	count
	movb	(%rbx), %bl
	movl	$.L__unnamed_213, %edi
	callq	count
	movb	%bl, -61(%rbp)
	movl	$.L__unnamed_214, %edi
	callq	count
	movl	-60(%rbp), %r14d
	movl	$.L__unnamed_215, %edi
	callq	count
	shrl	$4, %r14d
	movl	$.L__unnamed_216, %edi
	callq	count
	movl	-60(%rbp), %r15d
	movl	$.L__unnamed_217, %edi
	callq	count
	movl	$.L__unnamed_218, %edi
	callq	count
	movzbl	-61(%rbp), %ebx
	xorl	%r15d, %ebx
	movl	$.L__unnamed_219, %edi
	callq	count
	movl	$.L__unnamed_220, %edi
	callq	count
	movl	$.L__unnamed_221, %edi
	callq	count
	andl	$15, %ebx
	movl	$.L__unnamed_222, %edi
	callq	count
	movl	$.L__unnamed_223, %edi
	callq	count
	movl	$.L__unnamed_224, %edi
	callq	count
	movl	$.L__unnamed_225, %edi
	callq	count
	xorl	mz_crc32.s_crc32(,%rbx,4), %r14d
	movl	$.L__unnamed_226, %edi
	callq	count
	movl	%r14d, -60(%rbp)
	movl	$.L__unnamed_227, %edi
	callq	count
	movl	-60(%rbp), %r14d
	movl	$.L__unnamed_228, %edi
	callq	count
	shrl	$4, %r14d
	movl	$.L__unnamed_229, %edi
	callq	count
	movl	-60(%rbp), %r15d
	movl	$.L__unnamed_230, %edi
	callq	count
	andl	$15, %r15d
	movl	$.L__unnamed_231, %edi
	callq	count
	movzbl	-61(%rbp), %ebx
	movl	$.L__unnamed_232, %edi
	callq	count
	movl	$.L__unnamed_233, %edi
	callq	count
	shrl	$4, %ebx
	movl	$.L__unnamed_234, %edi
	callq	count
	xorl	%r15d, %ebx
	movl	$.L__unnamed_235, %edi
	callq	count
	movl	$.L__unnamed_236, %edi
	callq	count
	movl	$.L__unnamed_237, %edi
	callq	count
	movl	$.L__unnamed_238, %edi
	callq	count
	xorl	mz_crc32.s_crc32(,%rbx,4), %r14d
	movl	$.L__unnamed_239, %edi
	callq	count
	movl	%r14d, -60(%rbp)
	movl	$.L__unnamed_240, %edi
.LBB88_3:                               # =>This Inner Loop Header: Depth=1
	callq	count
	movl	$.L__unnamed_241, %edi
	callq	count
	movq	-56(%rbp), %rbx
	movl	$.L__unnamed_242, %edi
	callq	count
	leaq	-1(%rbx), %r14
	movl	$.L__unnamed_243, %edi
	callq	count
	movq	%r14, -56(%rbp)
	movl	$.L__unnamed_244, %edi
	callq	count
	testq	%rbx, %rbx
	setne	%r14b
	movl	$.L__unnamed_245, %edi
	callq	count
	movzbl	%r14b, %esi
	movl	$.L__unnamed_246, %edi
	callq	check
	movl	$.L__unnamed_247, %edi
	callq	count
	testq	%rbx, %rbx
	jne	.LBB88_4
# BB#5:
	movl	$.L__unnamed_248, %edi
	callq	count
	movl	-60(%rbp), %r14d
	movl	$.L__unnamed_249, %edi
	callq	count
	movl	$.L__unnamed_250, %edi
	callq	count
	movl	$4294967295, %ebx       # imm = 0xFFFFFFFF
	xorq	%r14, %rbx
	movl	$.L__unnamed_251, %edi
	callq	count
	movq	%rbx, -32(%rbp)
	movl	$.L__unnamed_252, %edi
	jmp	.LBB88_6
.LBB88_1:
	movl	$.L__unnamed_253, %edi
	callq	count
	movq	$0, -32(%rbp)
	movl	$.L__unnamed_254, %edi
.LBB88_6:
	callq	count
	movl	$.L__unnamed_255, %edi
	callq	count
	movq	-32(%rbp), %rbx
	movl	$.L__unnamed_256, %edi
	callq	count
	movq	%rbx, %rax
	addq	$40, %rsp
	popq	%rbx
	popq	%r14
	popq	%r15
	popq	%rbp
	retq
.Lfunc_end88:
	.size	mz_crc32, .Lfunc_end88-mz_crc32
	.cfi_endproc

	.globl	mz_free
	.align	16, 0x90
	.type	mz_free,@function
mz_free:                                # @mz_free
	.cfi_startproc
# BB#0:
	pushq	%rbp
.Ltmp333:
	.cfi_def_cfa_offset 16
.Ltmp334:
	.cfi_offset %rbp, -16
	movq	%rsp, %rbp
.Ltmp335:
	.cfi_def_cfa_register %rbp
	pushq	%rbx
	pushq	%rax
.Ltmp336:
	.cfi_offset %rbx, -24
	movq	%rdi, %rbx
	movl	$.L__unnamed_257, %edi
	callq	count
	movl	$.L__unnamed_258, %edi
	callq	count
	movq	%rbx, -16(%rbp)
	movl	$.L__unnamed_259, %edi
	callq	count
	movq	-16(%rbp), %rbx
	movl	$.L__unnamed_260, %edi
	callq	count
	movq	%rbx, %rdi
	callq	free
	movl	$.L__unnamed_261, %edi
	callq	count
	addq	$8, %rsp
	popq	%rbx
	popq	%rbp
	retq
.Lfunc_end89:
	.size	mz_free, .Lfunc_end89-mz_free
	.cfi_endproc

	.globl	mz_version
	.align	16, 0x90
	.type	mz_version,@function
mz_version:                             # @mz_version
	.cfi_startproc
# BB#0:
	pushq	%rbp
.Ltmp337:
	.cfi_def_cfa_offset 16
.Ltmp338:
	.cfi_offset %rbp, -16
	movq	%rsp, %rbp
.Ltmp339:
	.cfi_def_cfa_register %rbp
	movl	$.L__unnamed_262, %edi
	callq	count
	movl	$.L.str.1, %eax
	popq	%rbp
	retq
.Lfunc_end90:
	.size	mz_version, .Lfunc_end90-mz_version
	.cfi_endproc

	.globl	mz_deflateInit
	.align	16, 0x90
	.type	mz_deflateInit,@function
mz_deflateInit:                         # @mz_deflateInit
	.cfi_startproc
# BB#0:
	pushq	%rbp
.Ltmp340:
	.cfi_def_cfa_offset 16
.Ltmp341:
	.cfi_offset %rbp, -16
	movq	%rsp, %rbp
.Ltmp342:
	.cfi_def_cfa_register %rbp
	pushq	%r14
	pushq	%rbx
	subq	$16, %rsp
.Ltmp343:
	.cfi_offset %rbx, -32
.Ltmp344:
	.cfi_offset %r14, -24
	movl	%esi, %r14d
	movq	%rdi, %rbx
	movl	$.L__unnamed_263, %edi
	callq	count
	movl	$.L__unnamed_264, %edi
	callq	count
	movl	$.L__unnamed_265, %edi
	callq	count
	movq	%rbx, -24(%rbp)
	movl	$.L__unnamed_266, %edi
	callq	count
	movl	%r14d, -28(%rbp)
	movl	$.L__unnamed_267, %edi
	callq	count
	movq	-24(%rbp), %r14
	movl	$.L__unnamed_268, %edi
	callq	count
	movl	-28(%rbp), %ebx
	movl	$.L__unnamed_269, %edi
	callq	count
	movl	$8, %edx
	movl	$15, %ecx
	movl	$9, %r8d
	xorl	%r9d, %r9d
	movq	%r14, %rdi
	movl	%ebx, %esi
	callq	mz_deflateInit2
	movl	%eax, %ebx
	movl	$.L__unnamed_270, %edi
	callq	count
	movl	%ebx, %eax
	addq	$16, %rsp
	popq	%rbx
	popq	%r14
	popq	%rbp
	retq
.Lfunc_end91:
	.size	mz_deflateInit, .Lfunc_end91-mz_deflateInit
	.cfi_endproc

	.globl	mz_deflateInit2
	.align	16, 0x90
	.type	mz_deflateInit2,@function
mz_deflateInit2:                        # @mz_deflateInit2
	.cfi_startproc
# BB#0:
	pushq	%rbp
.Ltmp345:
	.cfi_def_cfa_offset 16
.Ltmp346:
	.cfi_offset %rbp, -16
	movq	%rsp, %rbp
.Ltmp347:
	.cfi_def_cfa_register %rbp
	pushq	%r15
	pushq	%r14
	pushq	%r13
	pushq	%r12
	pushq	%rbx
	subq	$56, %rsp
.Ltmp348:
	.cfi_offset %rbx, -56
.Ltmp349:
	.cfi_offset %r12, -48
.Ltmp350:
	.cfi_offset %r13, -40
.Ltmp351:
	.cfi_offset %r14, -32
.Ltmp352:
	.cfi_offset %r15, -24
	movl	%r9d, -96(%rbp)         # 4-byte Spill
	movl	%r8d, %r15d
	movl	%ecx, %r12d
	movl	%edx, %r13d
	movl	%esi, %ebx
	movq	%rdi, %r14
	movl	$.L__unnamed_271, %edi
	callq	count
	movl	$.L__unnamed_272, %edi
	callq	count
	movl	$.L__unnamed_273, %edi
	callq	count
	movl	$.L__unnamed_274, %edi
	callq	count
	movl	$.L__unnamed_275, %edi
	callq	count
	movl	$.L__unnamed_276, %edi
	callq	count
	movl	$.L__unnamed_277, %edi
	callq	count
	movl	$.L__unnamed_278, %edi
	callq	count
	movl	$.L__unnamed_279, %edi
	callq	count
	movl	$.L__unnamed_280, %edi
	callq	count
	movq	%r14, -56(%rbp)
	movl	$.L__unnamed_281, %edi
	callq	count
	movl	%ebx, -60(%rbp)
	movl	$.L__unnamed_282, %edi
	callq	count
	movl	%r13d, -64(%rbp)
	movl	$.L__unnamed_283, %edi
	callq	count
	movl	%r12d, -68(%rbp)
	movl	$.L__unnamed_284, %edi
	callq	count
	movl	%r15d, -72(%rbp)
	movl	$.L__unnamed_285, %edi
	callq	count
	movl	-96(%rbp), %eax         # 4-byte Reload
	movl	%eax, -76(%rbp)
	movl	$.L__unnamed_286, %edi
	callq	count
	movl	-60(%rbp), %r14d
	movl	$.L__unnamed_287, %edi
	callq	count
	movl	-68(%rbp), %r15d
	movl	$.L__unnamed_288, %edi
	callq	count
	movl	-76(%rbp), %ebx
	movl	$.L__unnamed_289, %edi
	callq	count
	movl	%r14d, %edi
	movl	%r15d, %esi
	movl	%ebx, %edx
	callq	tdefl_create_comp_flags_from_zip_params
	movl	%eax, %ebx
	movl	$.L__unnamed_290, %edi
	callq	count
	orl	$8192, %ebx             # imm = 0x2000
	movl	$.L__unnamed_291, %edi
	callq	count
	movl	%ebx, -92(%rbp)
	movl	$.L__unnamed_292, %edi
	callq	count
	movq	-56(%rbp), %r14
	movl	$.L__unnamed_293, %edi
	callq	count
	cmpq	$0, %r14
	setne	%bl
	movl	$.L__unnamed_294, %edi
	callq	count
	movzbl	%bl, %esi
	movl	$.L__unnamed_295, %edi
	callq	check
	movl	$.L__unnamed_296, %edi
	callq	count
	cmpq	$0, %r14
	je	.LBB92_1
# BB#2:
	movl	$.L__unnamed_297, %edi
	callq	count
	movl	-64(%rbp), %r14d
	movl	$.L__unnamed_298, %edi
	callq	count
	cmpl	$8, %r14d
	setne	%bl
	movl	$.L__unnamed_299, %edi
	callq	count
	movzbl	%bl, %esi
	movl	$.L__unnamed_300, %edi
	callq	check
	movl	$.L__unnamed_301, %edi
	callq	count
	cmpl	$8, %r14d
	jne	.LBB92_7
# BB#3:
	movl	$.L__unnamed_302, %edi
	callq	count
	movl	-72(%rbp), %r14d
	movl	$.L__unnamed_303, %edi
	callq	count
	cmpl	$0, %r14d
	setle	%bl
	movl	$.L__unnamed_304, %edi
	callq	count
	movzbl	%bl, %esi
	movl	$.L__unnamed_305, %edi
	callq	check
	movl	$.L__unnamed_306, %edi
	callq	count
	cmpl	$0, %r14d
	jle	.LBB92_7
# BB#4:
	movl	$.L__unnamed_307, %edi
	callq	count
	movl	-72(%rbp), %r14d
	movl	$.L__unnamed_308, %edi
	callq	count
	cmpl	$9, %r14d
	setg	%bl
	movl	$.L__unnamed_309, %edi
	callq	count
	movzbl	%bl, %esi
	movl	$.L__unnamed_310, %edi
	callq	check
	movl	$.L__unnamed_311, %edi
	callq	count
	cmpl	$9, %r14d
	jg	.LBB92_7
# BB#5:
	movl	$.L__unnamed_312, %edi
	callq	count
	movl	-68(%rbp), %r14d
	movl	$.L__unnamed_313, %edi
	callq	count
	cmpl	$15, %r14d
	setne	%bl
	movl	$.L__unnamed_314, %edi
	callq	count
	movzbl	%bl, %esi
	movl	$.L__unnamed_315, %edi
	callq	check
	movl	$.L__unnamed_316, %edi
	callq	count
	cmpl	$15, %r14d
	je	.LBB92_8
# BB#6:
	movl	$.L__unnamed_317, %edi
	callq	count
	xorl	%ebx, %ebx
	subl	-68(%rbp), %ebx
	movl	$.L__unnamed_318, %edi
	callq	count
	movl	$.L__unnamed_319, %edi
	callq	count
	cmpl	$15, %ebx
	setne	%r14b
	movl	$.L__unnamed_320, %edi
	callq	count
	movzbl	%r14b, %esi
	movl	$.L__unnamed_321, %edi
	callq	check
	movl	$.L__unnamed_322, %edi
	callq	count
	cmpl	$15, %ebx
	je	.LBB92_8
.LBB92_7:
	movl	$.L__unnamed_323, %edi
	callq	count
	movl	$-10000, -44(%rbp)      # imm = 0xFFFFFFFFFFFFD8F0
	movl	$.L__unnamed_324, %edi
	jmp	.LBB92_17
.LBB92_1:
	movl	$.L__unnamed_325, %edi
	callq	count
	movl	$-2, -44(%rbp)
	movl	$.L__unnamed_326, %edi
.LBB92_17:
	callq	count
	movl	$.L__unnamed_327, %edi
	callq	count
	movl	-44(%rbp), %ebx
	movl	$.L__unnamed_328, %edi
	callq	count
	movl	%ebx, %eax
	addq	$56, %rsp
	popq	%rbx
	popq	%r12
	popq	%r13
	popq	%r14
	popq	%r15
	popq	%rbp
	retq
.LBB92_8:
	movl	$.L__unnamed_329, %edi
	callq	count
	movq	-56(%rbp), %rbx
	movl	$.L__unnamed_330, %edi
	callq	count
	movl	$.L__unnamed_331, %edi
	callq	count
	movl	$0, 88(%rbx)
	movl	$.L__unnamed_332, %edi
	callq	count
	movq	-56(%rbp), %rbx
	movl	$.L__unnamed_333, %edi
	callq	count
	movl	$.L__unnamed_334, %edi
	callq	count
	movq	$1, 96(%rbx)
	movl	$.L__unnamed_335, %edi
	callq	count
	movq	-56(%rbp), %rbx
	movl	$.L__unnamed_336, %edi
	callq	count
	movl	$.L__unnamed_337, %edi
	callq	count
	movq	$0, 48(%rbx)
	movl	$.L__unnamed_338, %edi
	callq	count
	movq	-56(%rbp), %rbx
	movl	$.L__unnamed_339, %edi
	callq	count
	movl	$.L__unnamed_340, %edi
	callq	count
	movq	$0, 104(%rbx)
	movl	$.L__unnamed_341, %edi
	callq	count
	movq	-56(%rbp), %rbx
	movl	$.L__unnamed_342, %edi
	callq	count
	movl	$.L__unnamed_343, %edi
	callq	count
	movq	$0, 16(%rbx)
	movl	$.L__unnamed_344, %edi
	callq	count
	movq	-56(%rbp), %rbx
	movl	$.L__unnamed_345, %edi
	callq	count
	movl	$.L__unnamed_346, %edi
	callq	count
	movq	$0, 40(%rbx)
	movl	$.L__unnamed_347, %edi
	callq	count
	movq	-56(%rbp), %rbx
	movl	$.L__unnamed_348, %edi
	callq	count
	movl	$.L__unnamed_349, %edi
	callq	count
	movq	64(%rbx), %r14
	movl	$.L__unnamed_350, %edi
	callq	count
	cmpq	$0, %r14
	setne	%bl
	movl	$.L__unnamed_351, %edi
	callq	count
	movzbl	%bl, %esi
	movl	$.L__unnamed_352, %edi
	callq	check
	movl	$.L__unnamed_353, %edi
	callq	count
	cmpq	$0, %r14
	jne	.LBB92_10
# BB#9:
	movl	$.L__unnamed_354, %edi
	callq	count
	movq	-56(%rbp), %rbx
	movl	$.L__unnamed_355, %edi
	callq	count
	movl	$.L__unnamed_356, %edi
	callq	count
	movq	$def_alloc_func, 64(%rbx)
	movl	$.L__unnamed_357, %edi
	callq	count
.LBB92_10:
	movl	$.L__unnamed_358, %edi
	callq	count
	movq	-56(%rbp), %rbx
	movl	$.L__unnamed_359, %edi
	callq	count
	movl	$.L__unnamed_360, %edi
	callq	count
	movq	72(%rbx), %r14
	movl	$.L__unnamed_361, %edi
	callq	count
	cmpq	$0, %r14
	setne	%bl
	movl	$.L__unnamed_362, %edi
	callq	count
	movzbl	%bl, %esi
	movl	$.L__unnamed_363, %edi
	callq	check
	movl	$.L__unnamed_364, %edi
	callq	count
	cmpq	$0, %r14
	jne	.LBB92_12
# BB#11:
	movl	$.L__unnamed_365, %edi
	callq	count
	movq	-56(%rbp), %rbx
	movl	$.L__unnamed_366, %edi
	callq	count
	movl	$.L__unnamed_367, %edi
	callq	count
	movq	$def_free_func, 72(%rbx)
	movl	$.L__unnamed_368, %edi
	callq	count
.LBB92_12:
	movl	$.L__unnamed_369, %edi
	callq	count
	movq	-56(%rbp), %rbx
	movl	$.L__unnamed_370, %edi
	callq	count
	movl	$.L__unnamed_371, %edi
	callq	count
	movq	64(%rbx), %r14
	movl	$.L__unnamed_372, %edi
	callq	count
	movq	-56(%rbp), %rbx
	movl	$.L__unnamed_373, %edi
	callq	count
	movl	$.L__unnamed_374, %edi
	callq	count
	movq	80(%rbx), %rbx
	movl	$.L__unnamed_375, %edi
	callq	count
	movl	$1, %esi
	movl	$319352, %edx           # imm = 0x4DF78
	movq	%rbx, %rdi
	callq	*%r14
	movq	%rax, %rbx
	movl	$.L__unnamed_376, %edi
	callq	count
	movl	$.L__unnamed_377, %edi
	callq	count
	movq	%rbx, -88(%rbp)
	movl	$.L__unnamed_378, %edi
	callq	count
	movq	-88(%rbp), %r14
	movl	$.L__unnamed_379, %edi
	callq	count
	cmpq	$0, %r14
	setne	%bl
	movl	$.L__unnamed_380, %edi
	callq	count
	movzbl	%bl, %esi
	movl	$.L__unnamed_381, %edi
	callq	check
	movl	$.L__unnamed_382, %edi
	callq	count
	cmpq	$0, %r14
	je	.LBB92_13
# BB#14:
	movl	$.L__unnamed_383, %edi
	callq	count
	movq	-88(%rbp), %r14
	movl	$.L__unnamed_384, %edi
	callq	count
	movl	$.L__unnamed_385, %edi
	callq	count
	movq	-56(%rbp), %rbx
	movl	$.L__unnamed_386, %edi
	callq	count
	movl	$.L__unnamed_387, %edi
	callq	count
	movq	%r14, 56(%rbx)
	movl	$.L__unnamed_388, %edi
	callq	count
	movq	-88(%rbp), %r14
	movl	$.L__unnamed_389, %edi
	callq	count
	movl	-92(%rbp), %ebx
	movl	$.L__unnamed_390, %edi
	callq	count
	xorl	%esi, %esi
	xorl	%edx, %edx
	movq	%r14, %rdi
	movl	%ebx, %ecx
	callq	tdefl_init
	movl	%eax, %r14d
	movl	$.L__unnamed_391, %edi
	callq	count
	testl	%r14d, %r14d
	setne	%bl
	movl	$.L__unnamed_392, %edi
	callq	count
	movzbl	%bl, %esi
	movl	$.L__unnamed_393, %edi
	callq	check
	movl	$.L__unnamed_394, %edi
	callq	count
	testl	%r14d, %r14d
	je	.LBB92_16
# BB#15:
	movl	$.L__unnamed_395, %edi
	callq	count
	movq	-56(%rbp), %rbx
	movl	$.L__unnamed_396, %edi
	callq	count
	movq	%rbx, %rdi
	callq	mz_deflateEnd
	movl	$.L__unnamed_397, %edi
	callq	count
	movl	$-10000, -44(%rbp)      # imm = 0xFFFFFFFFFFFFD8F0
	movl	$.L__unnamed_398, %edi
	jmp	.LBB92_17
.LBB92_13:
	movl	$.L__unnamed_399, %edi
	callq	count
	movl	$-4, -44(%rbp)
	movl	$.L__unnamed_400, %edi
	jmp	.LBB92_17
.LBB92_16:
	movl	$.L__unnamed_401, %edi
	callq	count
	movl	$0, -44(%rbp)
	movl	$.L__unnamed_402, %edi
	jmp	.LBB92_17
.Lfunc_end92:
	.size	mz_deflateInit2, .Lfunc_end92-mz_deflateInit2
	.cfi_endproc

	.globl	tdefl_create_comp_flags_from_zip_params
	.align	16, 0x90
	.type	tdefl_create_comp_flags_from_zip_params,@function
tdefl_create_comp_flags_from_zip_params: # @tdefl_create_comp_flags_from_zip_params
	.cfi_startproc
# BB#0:
	pushq	%rbp
.Ltmp353:
	.cfi_def_cfa_offset 16
.Ltmp354:
	.cfi_offset %rbp, -16
	movq	%rsp, %rbp
.Ltmp355:
	.cfi_def_cfa_register %rbp
	pushq	%r15
	pushq	%r14
	pushq	%rbx
	subq	$24, %rsp
.Ltmp356:
	.cfi_offset %rbx, -40
.Ltmp357:
	.cfi_offset %r14, -32
.Ltmp358:
	.cfi_offset %r15, -24
	movl	%edx, %r14d
	movl	%esi, %r15d
	movl	%edi, %ebx
	movl	$.L__unnamed_403, %edi
	callq	count
	movl	$.L__unnamed_404, %edi
	callq	count
	movl	$.L__unnamed_405, %edi
	callq	count
	movl	$.L__unnamed_406, %edi
	callq	count
	movl	$.L__unnamed_407, %edi
	callq	count
	movl	%ebx, -28(%rbp)
	movl	$.L__unnamed_408, %edi
	callq	count
	movl	%r15d, -32(%rbp)
	movl	$.L__unnamed_409, %edi
	callq	count
	movl	%r14d, -36(%rbp)
	movl	$.L__unnamed_410, %edi
	callq	count
	movl	-28(%rbp), %r14d
	movl	$.L__unnamed_411, %edi
	callq	count
	cmpl	$0, %r14d
	setns	%bl
	movl	$.L__unnamed_412, %edi
	callq	count
	movzbl	%bl, %esi
	movl	$.L__unnamed_413, %edi
	callq	check
	movl	$.L__unnamed_414, %edi
	callq	count
	cmpl	$0, %r14d
	js	.LBB93_5
# BB#1:
	movl	$.L__unnamed_415, %edi
	callq	count
	movl	-28(%rbp), %r14d
	movl	$.L__unnamed_416, %edi
	callq	count
	cmpl	$10, %r14d
	setg	%bl
	movl	$.L__unnamed_417, %edi
	callq	count
	movzbl	%bl, %esi
	movl	$.L__unnamed_418, %edi
	callq	check
	movl	$.L__unnamed_419, %edi
	callq	count
	cmpl	$11, %r14d
	jl	.LBB93_3
# BB#2:
	movl	$.L__unnamed_420, %edi
	callq	count
	movl	$10, %ebx
	jmp	.LBB93_4
.LBB93_5:
	movl	$.L__unnamed_421, %edi
	callq	count
	movl	$6, %ebx
	jmp	.LBB93_6
.LBB93_3:
	movl	$.L__unnamed_422, %edi
	callq	count
	movl	-28(%rbp), %ebx
	movl	$.L__unnamed_423, %edi
	callq	count
.LBB93_4:
	movl	$.L__unnamed_424, %edi
	callq	count
.LBB93_6:
	movl	$.L__unnamed_425, %edi
	callq	count
	movslq	%ebx, %rbx
	movl	$.L__unnamed_426, %edi
	callq	count
	movl	$.L__unnamed_427, %edi
	callq	count
	movl	s_tdefl_num_probes(,%rbx,4), %r14d
	movl	$.L__unnamed_428, %edi
	callq	count
	movl	-28(%rbp), %ebx
	movl	$.L__unnamed_429, %edi
	callq	count
	movl	$.L__unnamed_430, %edi
	callq	count
	cmpl	$4, %ebx
	movl	$16384, %ebx            # imm = 0x4000
	jl	.LBB93_8
# BB#7:                                 # %select.false
	xorl	%ebx, %ebx
.LBB93_8:                               # %select.end
	movl	$.L__unnamed_431, %edi
	callq	count
	orl	%ebx, %r14d
	movl	$.L__unnamed_432, %edi
	callq	count
	movl	%r14d, -40(%rbp)
	movl	$.L__unnamed_433, %edi
	callq	count
	movl	-32(%rbp), %r14d
	movl	$.L__unnamed_434, %edi
	callq	count
	cmpl	$0, %r14d
	setg	%bl
	movl	$.L__unnamed_435, %edi
	callq	count
	movzbl	%bl, %esi
	movl	$.L__unnamed_436, %edi
	callq	check
	movl	$.L__unnamed_437, %edi
	callq	count
	cmpl	$0, %r14d
	jle	.LBB93_10
# BB#9:
	movl	$.L__unnamed_438, %edi
	callq	count
	movl	$4096, %ebx             # imm = 0x1000
	orl	-40(%rbp), %ebx
	movl	$.L__unnamed_439, %edi
	callq	count
	movl	$.L__unnamed_440, %edi
	callq	count
	movl	%ebx, -40(%rbp)
	movl	$.L__unnamed_441, %edi
	callq	count
.LBB93_10:
	movl	$.L__unnamed_442, %edi
	callq	count
	movl	-28(%rbp), %r14d
	movl	$.L__unnamed_443, %edi
	callq	count
	cmpl	$0, %r14d
	setne	%bl
	movl	$.L__unnamed_444, %edi
	callq	count
	movzbl	%bl, %esi
	movl	$.L__unnamed_445, %edi
	callq	check
	movl	$.L__unnamed_446, %edi
	callq	count
	cmpl	$0, %r14d
	je	.LBB93_11
# BB#12:
	movl	$.L__unnamed_447, %edi
	callq	count
	movl	-36(%rbp), %r14d
	movl	$.L__unnamed_448, %edi
	callq	count
	cmpl	$1, %r14d
	sete	%bl
	movl	$.L__unnamed_449, %edi
	callq	count
	movzbl	%bl, %esi
	movl	$.L__unnamed_450, %edi
	callq	check
	movl	$.L__unnamed_451, %edi
	callq	count
	cmpl	$1, %r14d
	jne	.LBB93_14
# BB#13:
	movl	$.L__unnamed_452, %edi
	callq	count
	movl	$131072, %ebx           # imm = 0x20000
	orl	-40(%rbp), %ebx
	movl	$.L__unnamed_453, %edi
	callq	count
	movl	$.L__unnamed_454, %edi
	callq	count
	movl	%ebx, -40(%rbp)
	movl	$.L__unnamed_455, %edi
	jmp	.LBB93_23
.LBB93_11:
	movl	$.L__unnamed_456, %edi
	callq	count
	movl	$524288, %ebx           # imm = 0x80000
	orl	-40(%rbp), %ebx
	movl	$.L__unnamed_457, %edi
	callq	count
	movl	$.L__unnamed_458, %edi
	callq	count
	movl	%ebx, -40(%rbp)
	movl	$.L__unnamed_459, %edi
	jmp	.LBB93_24
.LBB93_14:
	movl	$.L__unnamed_460, %edi
	callq	count
	movl	-36(%rbp), %r14d
	movl	$.L__unnamed_461, %edi
	callq	count
	cmpl	$2, %r14d
	sete	%bl
	movl	$.L__unnamed_462, %edi
	callq	count
	movzbl	%bl, %esi
	movl	$.L__unnamed_463, %edi
	callq	check
	movl	$.L__unnamed_464, %edi
	callq	count
	cmpl	$2, %r14d
	jne	.LBB93_16
# BB#15:
	movl	$.L__unnamed_465, %edi
	callq	count
	movl	$-4096, %ebx            # imm = 0xFFFFFFFFFFFFF000
	andl	-40(%rbp), %ebx
	movl	$.L__unnamed_466, %edi
	callq	count
	movl	$.L__unnamed_467, %edi
	callq	count
	movl	%ebx, -40(%rbp)
	movl	$.L__unnamed_468, %edi
	jmp	.LBB93_22
.LBB93_16:
	movl	$.L__unnamed_469, %edi
	callq	count
	movl	-36(%rbp), %r14d
	movl	$.L__unnamed_470, %edi
	callq	count
	cmpl	$4, %r14d
	sete	%bl
	movl	$.L__unnamed_471, %edi
	callq	count
	movzbl	%bl, %esi
	movl	$.L__unnamed_472, %edi
	callq	check
	movl	$.L__unnamed_473, %edi
	callq	count
	cmpl	$4, %r14d
	jne	.LBB93_18
# BB#17:
	movl	$.L__unnamed_474, %edi
	callq	count
	movl	$262144, %ebx           # imm = 0x40000
	orl	-40(%rbp), %ebx
	movl	$.L__unnamed_475, %edi
	callq	count
	movl	$.L__unnamed_476, %edi
	callq	count
	movl	%ebx, -40(%rbp)
	movl	$.L__unnamed_477, %edi
	jmp	.LBB93_21
.LBB93_18:
	movl	$.L__unnamed_478, %edi
	callq	count
	movl	-36(%rbp), %r14d
	movl	$.L__unnamed_479, %edi
	callq	count
	cmpl	$3, %r14d
	sete	%bl
	movl	$.L__unnamed_480, %edi
	callq	count
	movzbl	%bl, %esi
	movl	$.L__unnamed_481, %edi
	callq	check
	movl	$.L__unnamed_482, %edi
	callq	count
	cmpl	$3, %r14d
	jne	.LBB93_20
# BB#19:
	movl	$.L__unnamed_483, %edi
	callq	count
	movl	$65536, %ebx            # imm = 0x10000
	orl	-40(%rbp), %ebx
	movl	$.L__unnamed_484, %edi
	callq	count
	movl	$.L__unnamed_485, %edi
	callq	count
	movl	%ebx, -40(%rbp)
	movl	$.L__unnamed_486, %edi
	callq	count
.LBB93_20:
	movl	$.L__unnamed_487, %edi
.LBB93_21:
	callq	count
	movl	$.L__unnamed_488, %edi
.LBB93_22:
	callq	count
	movl	$.L__unnamed_489, %edi
.LBB93_23:
	callq	count
	movl	$.L__unnamed_490, %edi
.LBB93_24:
	callq	count
	movl	$.L__unnamed_491, %edi
	callq	count
	movl	-40(%rbp), %ebx
	movl	$.L__unnamed_492, %edi
	callq	count
	movl	%ebx, %eax
	addq	$24, %rsp
	popq	%rbx
	popq	%r14
	popq	%r15
	popq	%rbp
	retq
.Lfunc_end93:
	.size	tdefl_create_comp_flags_from_zip_params, .Lfunc_end93-tdefl_create_comp_flags_from_zip_params
	.cfi_endproc

	.align	16, 0x90
	.type	def_alloc_func,@function
def_alloc_func:                         # @def_alloc_func
	.cfi_startproc
# BB#0:
	pushq	%rbp
.Ltmp359:
	.cfi_def_cfa_offset 16
.Ltmp360:
	.cfi_offset %rbp, -16
	movq	%rsp, %rbp
.Ltmp361:
	.cfi_def_cfa_register %rbp
	pushq	%r15
	pushq	%r14
	pushq	%rbx
	subq	$24, %rsp
.Ltmp362:
	.cfi_offset %rbx, -40
.Ltmp363:
	.cfi_offset %r14, -32
.Ltmp364:
	.cfi_offset %r15, -24
	movq	%rdx, %r14
	movq	%rsi, %r15
	movq	%rdi, %rbx
	movl	$.L__unnamed_493, %edi
	callq	count
	movl	$.L__unnamed_494, %edi
	callq	count
	movl	$.L__unnamed_495, %edi
	callq	count
	movl	$.L__unnamed_496, %edi
	callq	count
	movq	%rbx, -32(%rbp)
	movl	$.L__unnamed_497, %edi
	callq	count
	movq	%r15, -40(%rbp)
	movl	$.L__unnamed_498, %edi
	callq	count
	movq	%r14, -48(%rbp)
	movl	$.L__unnamed_499, %edi
	callq	count
	movl	$.L__unnamed_500, %edi
	callq	count
	movl	$.L__unnamed_501, %edi
	callq	count
	movl	$.L__unnamed_502, %edi
	callq	count
	movq	-40(%rbp), %rbx
	movl	$.L__unnamed_503, %edi
	callq	count
	imulq	-48(%rbp), %rbx
	movl	$.L__unnamed_504, %edi
	callq	count
	movl	$.L__unnamed_505, %edi
	callq	count
	movq	%rbx, %rdi
	callq	malloc
	movq	%rax, %rbx
	movl	$.L__unnamed_506, %edi
	callq	count
	movq	%rbx, %rax
	addq	$24, %rsp
	popq	%rbx
	popq	%r14
	popq	%r15
	popq	%rbp
	retq
.Lfunc_end94:
	.size	def_alloc_func, .Lfunc_end94-def_alloc_func
	.cfi_endproc

	.align	16, 0x90
	.type	def_free_func,@function
def_free_func:                          # @def_free_func
	.cfi_startproc
# BB#0:
	pushq	%rbp
.Ltmp365:
	.cfi_def_cfa_offset 16
.Ltmp366:
	.cfi_offset %rbp, -16
	movq	%rsp, %rbp
.Ltmp367:
	.cfi_def_cfa_register %rbp
	pushq	%r14
	pushq	%rbx
	subq	$16, %rsp
.Ltmp368:
	.cfi_offset %rbx, -32
.Ltmp369:
	.cfi_offset %r14, -24
	movq	%rsi, %r14
	movq	%rdi, %rbx
	movl	$.L__unnamed_507, %edi
	callq	count
	movl	$.L__unnamed_508, %edi
	callq	count
	movl	$.L__unnamed_509, %edi
	callq	count
	movq	%rbx, -24(%rbp)
	movl	$.L__unnamed_510, %edi
	callq	count
	movq	%r14, -32(%rbp)
	movl	$.L__unnamed_511, %edi
	callq	count
	movl	$.L__unnamed_512, %edi
	callq	count
	movl	$.L__unnamed_513, %edi
	callq	count
	movq	-32(%rbp), %rbx
	movl	$.L__unnamed_514, %edi
	callq	count
	movq	%rbx, %rdi
	callq	free
	movl	$.L__unnamed_515, %edi
	callq	count
	addq	$16, %rsp
	popq	%rbx
	popq	%r14
	popq	%rbp
	retq
.Lfunc_end95:
	.size	def_free_func, .Lfunc_end95-def_free_func
	.cfi_endproc

	.globl	tdefl_init
	.align	16, 0x90
	.type	tdefl_init,@function
tdefl_init:                             # @tdefl_init
	.cfi_startproc
# BB#0:
	pushq	%rbp
.Ltmp370:
	.cfi_def_cfa_offset 16
.Ltmp371:
	.cfi_offset %rbp, -16
	movq	%rsp, %rbp
.Ltmp372:
	.cfi_def_cfa_register %rbp
	pushq	%r15
	pushq	%r14
	pushq	%r12
	pushq	%rbx
	subq	$32, %rsp
.Ltmp373:
	.cfi_offset %rbx, -48
.Ltmp374:
	.cfi_offset %r12, -40
.Ltmp375:
	.cfi_offset %r14, -32
.Ltmp376:
	.cfi_offset %r15, -24
	movl	%ecx, %r14d
	movq	%rdx, %r15
	movq	%rsi, %r12
	movq	%rdi, %rbx
	movl	$.L__unnamed_516, %edi
	callq	count
	movl	$.L__unnamed_517, %edi
	callq	count
	movl	$.L__unnamed_518, %edi
	callq	count
	movl	$.L__unnamed_519, %edi
	callq	count
	movl	$.L__unnamed_520, %edi
	callq	count
	movq	%rbx, -40(%rbp)
	movl	$.L__unnamed_521, %edi
	callq	count
	movq	%r12, -48(%rbp)
	movl	$.L__unnamed_522, %edi
	callq	count
	movq	%r15, -56(%rbp)
	movl	$.L__unnamed_523, %edi
	callq	count
	movl	%r14d, -60(%rbp)
	movl	$.L__unnamed_524, %edi
	callq	count
	movq	-48(%rbp), %r14
	movl	$.L__unnamed_525, %edi
	callq	count
	movq	-40(%rbp), %rbx
	movl	$.L__unnamed_526, %edi
	callq	count
	movl	$.L__unnamed_527, %edi
	callq	count
	movq	%r14, (%rbx)
	movl	$.L__unnamed_528, %edi
	callq	count
	movq	-56(%rbp), %r14
	movl	$.L__unnamed_529, %edi
	callq	count
	movq	-40(%rbp), %rbx
	movl	$.L__unnamed_530, %edi
	callq	count
	movl	$.L__unnamed_531, %edi
	callq	count
	movq	%r14, 8(%rbx)
	movl	$.L__unnamed_532, %edi
	callq	count
	movl	-60(%rbp), %r14d
	movl	$.L__unnamed_533, %edi
	callq	count
	movq	-40(%rbp), %rbx
	movl	$.L__unnamed_534, %edi
	callq	count
	movl	$.L__unnamed_535, %edi
	callq	count
	movl	%r14d, 16(%rbx)
	movl	$.L__unnamed_536, %edi
	callq	count
	movl	$4095, %ebx             # imm = 0xFFF
	andl	-60(%rbp), %ebx
	movl	$.L__unnamed_537, %edi
	callq	count
	movl	$.L__unnamed_538, %edi
	callq	count
	addl	$2, %ebx
	movl	$.L__unnamed_539, %edi
	callq	count
	movl	$2863311531, %r14d      # imm = 0xAAAAAAAB
	imulq	%r14, %rbx
	shrq	$33, %rbx
	movl	$.L__unnamed_540, %edi
	callq	count
	incl	%ebx
	movl	$.L__unnamed_541, %edi
	callq	count
	movq	-40(%rbp), %r15
	movl	$.L__unnamed_542, %edi
	callq	count
	movl	$.L__unnamed_543, %edi
	callq	count
	movl	$.L__unnamed_544, %edi
	callq	count
	movl	%ebx, 20(%r15)
	movl	$.L__unnamed_545, %edi
	callq	count
	movl	$16384, %ebx            # imm = 0x4000
	andl	-60(%rbp), %ebx
	movl	$.L__unnamed_546, %edi
	callq	count
	movl	$.L__unnamed_547, %edi
	callq	count
	shrl	$14, %ebx
	movl	$.L__unnamed_548, %edi
	callq	count
	movl	$.L__unnamed_549, %edi
	callq	count
	movq	-40(%rbp), %r15
	movl	$.L__unnamed_550, %edi
	callq	count
	movl	$.L__unnamed_551, %edi
	callq	count
	movl	%ebx, 28(%r15)
	movl	$.L__unnamed_552, %edi
	callq	count
	movl	$4092, %ebx             # imm = 0xFFC
	andl	-60(%rbp), %ebx
	movl	$.L__unnamed_553, %edi
	callq	count
	movl	$.L__unnamed_554, %edi
	callq	count
	shrl	$2, %ebx
	movl	$.L__unnamed_555, %edi
	callq	count
	addl	$2, %ebx
	movl	$.L__unnamed_556, %edi
	callq	count
	imulq	%r14, %rbx
	shrq	$33, %rbx
	movl	$.L__unnamed_557, %edi
	callq	count
	incl	%ebx
	movl	$.L__unnamed_558, %edi
	callq	count
	movq	-40(%rbp), %r14
	movl	$.L__unnamed_559, %edi
	callq	count
	movl	$.L__unnamed_560, %edi
	callq	count
	movl	$.L__unnamed_561, %edi
	callq	count
	movl	%ebx, 24(%r14)
	movl	$.L__unnamed_562, %edi
	callq	count
	movl	$32768, %ebx            # imm = 0x8000
	andl	-60(%rbp), %ebx
	movl	$.L__unnamed_563, %edi
	callq	count
	movl	$.L__unnamed_564, %edi
	callq	count
	shrl	$15, %ebx
	movl	$.L__unnamed_565, %edi
	callq	count
	movl	$.L__unnamed_566, %edi
	movl	%ebx, %esi
	callq	check
	movl	$.L__unnamed_567, %edi
	callq	count
	testl	%ebx, %ebx
	jne	.LBB96_2
# BB#1:
	movl	$.L__unnamed_568, %edi
	callq	count
	movl	$168618, %ebx           # imm = 0x292AA
	addq	-40(%rbp), %rbx
	movl	$.L__unnamed_569, %edi
	callq	count
	movl	$.L__unnamed_570, %edi
	callq	count
	movl	$.L__unnamed_571, %edi
	callq	count
	xorl	%esi, %esi
	movl	$65536, %edx            # imm = 0x10000
	movq	%rbx, %rdi
	callq	memset
	movl	$.L__unnamed_572, %edi
	callq	count
.LBB96_2:
	movl	$.L__unnamed_573, %edi
	callq	count
	movq	-40(%rbp), %rbx
	movl	$.L__unnamed_574, %edi
	callq	count
	movl	$.L__unnamed_575, %edi
	callq	count
	movl	$0, 92(%rbx)
	movl	$.L__unnamed_576, %edi
	callq	count
	movq	-40(%rbp), %rbx
	movl	$.L__unnamed_577, %edi
	callq	count
	movl	$.L__unnamed_578, %edi
	callq	count
	movl	$0, 88(%rbx)
	movl	$.L__unnamed_579, %edi
	callq	count
	movq	-40(%rbp), %rbx
	movl	$.L__unnamed_580, %edi
	callq	count
	movl	$.L__unnamed_581, %edi
	callq	count
	movl	$0, 84(%rbx)
	movl	$.L__unnamed_582, %edi
	callq	count
	movq	-40(%rbp), %rbx
	movl	$.L__unnamed_583, %edi
	callq	count
	movl	$.L__unnamed_584, %edi
	callq	count
	movl	$0, 44(%rbx)
	movl	$.L__unnamed_585, %edi
	callq	count
	movq	-40(%rbp), %rbx
	movl	$.L__unnamed_586, %edi
	callq	count
	movl	$.L__unnamed_587, %edi
	callq	count
	movl	$0, 40(%rbx)
	movl	$.L__unnamed_588, %edi
	callq	count
	movq	-40(%rbp), %rbx
	movl	$.L__unnamed_589, %edi
	callq	count
	movl	$.L__unnamed_590, %edi
	callq	count
	movl	$0, 36(%rbx)
	movl	$.L__unnamed_591, %edi
	callq	count
	movq	-40(%rbp), %rbx
	movl	$.L__unnamed_592, %edi
	callq	count
	movl	$.L__unnamed_593, %edi
	callq	count
	movl	$0, 128(%rbx)
	movl	$.L__unnamed_594, %edi
	callq	count
	movq	-40(%rbp), %rbx
	movl	$.L__unnamed_595, %edi
	callq	count
	movl	$.L__unnamed_596, %edi
	callq	count
	movl	$0, 96(%rbx)
	movl	$.L__unnamed_597, %edi
	callq	count
	movq	-40(%rbp), %rbx
	movl	$.L__unnamed_598, %edi
	callq	count
	movl	$.L__unnamed_599, %edi
	callq	count
	movl	$0, 124(%rbx)
	movl	$.L__unnamed_600, %edi
	callq	count
	movq	-40(%rbp), %rbx
	movl	$.L__unnamed_601, %edi
	callq	count
	movl	$.L__unnamed_602, %edi
	callq	count
	movl	$0, 120(%rbx)
	movl	$.L__unnamed_603, %edi
	callq	count
	movq	-40(%rbp), %rbx
	movl	$.L__unnamed_604, %edi
	callq	count
	movl	$.L__unnamed_605, %edi
	callq	count
	movl	$0, 116(%rbx)
	movl	$.L__unnamed_606, %edi
	callq	count
	movq	-40(%rbp), %rbx
	movl	$.L__unnamed_607, %edi
	callq	count
	movl	$.L__unnamed_608, %edi
	callq	count
	movl	$0, 112(%rbx)
	movl	$.L__unnamed_609, %edi
	callq	count
	movl	$37547, %ebx            # imm = 0x92AB
	addq	-40(%rbp), %rbx
	movl	$.L__unnamed_610, %edi
	callq	count
	movl	$.L__unnamed_611, %edi
	callq	count
	movl	$.L__unnamed_612, %edi
	callq	count
	movl	$.L__unnamed_613, %edi
	callq	count
	movq	-40(%rbp), %r14
	movl	$.L__unnamed_614, %edi
	callq	count
	movl	$.L__unnamed_615, %edi
	callq	count
	movq	%rbx, 48(%r14)
	movl	$.L__unnamed_616, %edi
	callq	count
	movl	$37546, %ebx            # imm = 0x92AA
	addq	-40(%rbp), %rbx
	movl	$.L__unnamed_617, %edi
	callq	count
	movl	$.L__unnamed_618, %edi
	callq	count
	movl	$.L__unnamed_619, %edi
	callq	count
	movq	-40(%rbp), %r14
	movl	$.L__unnamed_620, %edi
	callq	count
	movl	$.L__unnamed_621, %edi
	callq	count
	movq	%rbx, 56(%r14)
	movl	$.L__unnamed_622, %edi
	callq	count
	movq	-40(%rbp), %rbx
	movl	$.L__unnamed_623, %edi
	callq	count
	movl	$.L__unnamed_624, %edi
	callq	count
	movl	$8, 80(%rbx)
	movl	$.L__unnamed_625, %edi
	callq	count
	movl	$234154, %r14d          # imm = 0x392AA
	movq	-40(%rbp), %rbx
	addq	%r14, %rbx
	movl	$.L__unnamed_626, %edi
	callq	count
	movl	$.L__unnamed_627, %edi
	callq	count
	movl	$.L__unnamed_628, %edi
	callq	count
	movq	-40(%rbp), %r15
	movl	$.L__unnamed_629, %edi
	callq	count
	movl	$.L__unnamed_630, %edi
	callq	count
	movq	%rbx, 64(%r15)
	movl	$.L__unnamed_631, %edi
	callq	count
	addq	-40(%rbp), %r14
	movl	$.L__unnamed_632, %edi
	callq	count
	movl	$.L__unnamed_633, %edi
	callq	count
	movl	$.L__unnamed_634, %edi
	callq	count
	movq	-40(%rbp), %rbx
	movl	$.L__unnamed_635, %edi
	callq	count
	movl	$.L__unnamed_636, %edi
	callq	count
	movq	%r14, 72(%rbx)
	movl	$.L__unnamed_637, %edi
	callq	count
	movq	-40(%rbp), %rbx
	movl	$.L__unnamed_638, %edi
	callq	count
	movl	$.L__unnamed_639, %edi
	callq	count
	movl	$0, 132(%rbx)
	movl	$.L__unnamed_640, %edi
	callq	count
	movq	-40(%rbp), %rbx
	movl	$.L__unnamed_641, %edi
	callq	count
	movl	$.L__unnamed_642, %edi
	callq	count
	movl	$0, 108(%rbx)
	movl	$.L__unnamed_643, %edi
	callq	count
	movq	-40(%rbp), %rbx
	movl	$.L__unnamed_644, %edi
	callq	count
	movl	$.L__unnamed_645, %edi
	callq	count
	movl	$0, 104(%rbx)
	movl	$.L__unnamed_646, %edi
	callq	count
	movq	-40(%rbp), %rbx
	movl	$.L__unnamed_647, %edi
	callq	count
	movl	$.L__unnamed_648, %edi
	callq	count
	movl	$0, 100(%rbx)
	movl	$.L__unnamed_649, %edi
	callq	count
	movq	-40(%rbp), %rbx
	movl	$.L__unnamed_650, %edi
	callq	count
	movl	$.L__unnamed_651, %edi
	callq	count
	movl	$1, 32(%rbx)
	movl	$.L__unnamed_652, %edi
	callq	count
	movq	-40(%rbp), %rbx
	movl	$.L__unnamed_653, %edi
	callq	count
	movl	$.L__unnamed_654, %edi
	callq	count
	movq	$0, 136(%rbx)
	movl	$.L__unnamed_655, %edi
	callq	count
	movq	-40(%rbp), %rbx
	movl	$.L__unnamed_656, %edi
	callq	count
	movl	$.L__unnamed_657, %edi
	callq	count
	movq	$0, 144(%rbx)
	movl	$.L__unnamed_658, %edi
	callq	count
	movq	-40(%rbp), %rbx
	movl	$.L__unnamed_659, %edi
	callq	count
	movl	$.L__unnamed_660, %edi
	callq	count
	movq	$0, 152(%rbx)
	movl	$.L__unnamed_661, %edi
	callq	count
	movq	-40(%rbp), %rbx
	movl	$.L__unnamed_662, %edi
	callq	count
	movl	$.L__unnamed_663, %edi
	callq	count
	movq	$0, 160(%rbx)
	movl	$.L__unnamed_664, %edi
	callq	count
	movq	-40(%rbp), %rbx
	movl	$.L__unnamed_665, %edi
	callq	count
	movl	$.L__unnamed_666, %edi
	callq	count
	movl	$0, 168(%rbx)
	movl	$.L__unnamed_667, %edi
	callq	count
	movq	-40(%rbp), %rbx
	movl	$.L__unnamed_668, %edi
	callq	count
	movl	$.L__unnamed_669, %edi
	callq	count
	movq	$0, 176(%rbx)
	movl	$.L__unnamed_670, %edi
	callq	count
	movq	-40(%rbp), %rbx
	movl	$.L__unnamed_671, %edi
	callq	count
	movl	$.L__unnamed_672, %edi
	callq	count
	movq	$0, 184(%rbx)
	movl	$.L__unnamed_673, %edi
	callq	count
	movq	-40(%rbp), %rbx
	movl	$.L__unnamed_674, %edi
	callq	count
	movl	$.L__unnamed_675, %edi
	callq	count
	movq	$0, 192(%rbx)
	movl	$.L__unnamed_676, %edi
	callq	count
	movl	$33226, %ebx            # imm = 0x81CA
	addq	-40(%rbp), %rbx
	movl	$.L__unnamed_677, %edi
	callq	count
	movl	$.L__unnamed_678, %edi
	callq	count
	movl	$.L__unnamed_679, %edi
	callq	count
	movl	$.L__unnamed_680, %edi
	callq	count
	movl	$.L__unnamed_681, %edi
	callq	count
	xorl	%esi, %esi
	movl	$576, %edx              # imm = 0x240
	movq	%rbx, %rdi
	callq	memset
	movl	$.L__unnamed_682, %edi
	callq	count
	movq	-40(%rbp), %rbx
	movl	$.L__unnamed_683, %edi
	callq	count
	movl	$.L__unnamed_684, %edi
	callq	count
	movl	$.L__unnamed_685, %edi
	callq	count
	movl	$.L__unnamed_686, %edi
	callq	count
	movl	$.L__unnamed_687, %edi
	callq	count
	xorps	%xmm0, %xmm0
	movups	%xmm0, 33850(%rbx)
	movups	%xmm0, 33834(%rbx)
	movups	%xmm0, 33818(%rbx)
	movups	%xmm0, 33802(%rbx)
	movl	$.L__unnamed_688, %edi
	callq	count
	xorl	%eax, %eax
	addq	$32, %rsp
	popq	%rbx
	popq	%r12
	popq	%r14
	popq	%r15
	popq	%rbp
	retq
.Lfunc_end96:
	.size	tdefl_init, .Lfunc_end96-tdefl_init
	.cfi_endproc

	.globl	mz_deflateEnd
	.align	16, 0x90
	.type	mz_deflateEnd,@function
mz_deflateEnd:                          # @mz_deflateEnd
	.cfi_startproc
# BB#0:
	pushq	%rbp
.Ltmp377:
	.cfi_def_cfa_offset 16
.Ltmp378:
	.cfi_offset %rbp, -16
	movq	%rsp, %rbp
.Ltmp379:
	.cfi_def_cfa_register %rbp
	pushq	%r15
	pushq	%r14
	pushq	%rbx
	subq	$24, %rsp
.Ltmp380:
	.cfi_offset %rbx, -40
.Ltmp381:
	.cfi_offset %r14, -32
.Ltmp382:
	.cfi_offset %r15, -24
	movq	%rdi, %rbx
	movl	$.L__unnamed_689, %edi
	callq	count
	movl	$.L__unnamed_690, %edi
	callq	count
	movl	$.L__unnamed_691, %edi
	callq	count
	movq	%rbx, -40(%rbp)
	movl	$.L__unnamed_692, %edi
	callq	count
	movq	-40(%rbp), %r14
	movl	$.L__unnamed_693, %edi
	callq	count
	cmpq	$0, %r14
	setne	%bl
	movl	$.L__unnamed_694, %edi
	callq	count
	movzbl	%bl, %esi
	movl	$.L__unnamed_695, %edi
	callq	check
	movl	$.L__unnamed_696, %edi
	callq	count
	cmpq	$0, %r14
	je	.LBB97_1
# BB#2:
	movl	$.L__unnamed_697, %edi
	callq	count
	movq	-40(%rbp), %rbx
	movl	$.L__unnamed_698, %edi
	callq	count
	movl	$.L__unnamed_699, %edi
	callq	count
	movq	56(%rbx), %r14
	movl	$.L__unnamed_700, %edi
	callq	count
	cmpq	$0, %r14
	setne	%bl
	movl	$.L__unnamed_701, %edi
	callq	count
	movzbl	%bl, %esi
	movl	$.L__unnamed_702, %edi
	callq	check
	movl	$.L__unnamed_703, %edi
	callq	count
	cmpq	$0, %r14
	je	.LBB97_4
# BB#3:
	movl	$.L__unnamed_704, %edi
	callq	count
	movq	-40(%rbp), %rbx
	movl	$.L__unnamed_705, %edi
	callq	count
	movl	$.L__unnamed_706, %edi
	callq	count
	movq	72(%rbx), %r15
	movl	$.L__unnamed_707, %edi
	callq	count
	movq	-40(%rbp), %rbx
	movl	$.L__unnamed_708, %edi
	callq	count
	movl	$.L__unnamed_709, %edi
	callq	count
	movq	80(%rbx), %r14
	movl	$.L__unnamed_710, %edi
	callq	count
	movq	-40(%rbp), %rbx
	movl	$.L__unnamed_711, %edi
	callq	count
	movl	$.L__unnamed_712, %edi
	callq	count
	movq	56(%rbx), %rbx
	movl	$.L__unnamed_713, %edi
	callq	count
	movl	$.L__unnamed_714, %edi
	callq	count
	movq	%r14, %rdi
	movq	%rbx, %rsi
	callq	*%r15
	movl	$.L__unnamed_715, %edi
	callq	count
	movq	-40(%rbp), %rbx
	movl	$.L__unnamed_716, %edi
	callq	count
	movl	$.L__unnamed_717, %edi
	callq	count
	movq	$0, 56(%rbx)
	movl	$.L__unnamed_718, %edi
	callq	count
.LBB97_4:
	movl	$.L__unnamed_719, %edi
	callq	count
	movl	$0, -28(%rbp)
	movl	$.L__unnamed_720, %edi
	jmp	.LBB97_5
.LBB97_1:
	movl	$.L__unnamed_721, %edi
	callq	count
	movl	$-2, -28(%rbp)
	movl	$.L__unnamed_722, %edi
.LBB97_5:
	callq	count
	movl	$.L__unnamed_723, %edi
	callq	count
	movl	-28(%rbp), %ebx
	movl	$.L__unnamed_724, %edi
	callq	count
	movl	%ebx, %eax
	addq	$24, %rsp
	popq	%rbx
	popq	%r14
	popq	%r15
	popq	%rbp
	retq
.Lfunc_end97:
	.size	mz_deflateEnd, .Lfunc_end97-mz_deflateEnd
	.cfi_endproc

	.globl	mz_deflateReset
	.align	16, 0x90
	.type	mz_deflateReset,@function
mz_deflateReset:                        # @mz_deflateReset
	.cfi_startproc
# BB#0:
	pushq	%rbp
.Ltmp383:
	.cfi_def_cfa_offset 16
.Ltmp384:
	.cfi_offset %rbp, -16
	movq	%rsp, %rbp
.Ltmp385:
	.cfi_def_cfa_register %rbp
	pushq	%r14
	pushq	%rbx
	subq	$16, %rsp
.Ltmp386:
	.cfi_offset %rbx, -32
.Ltmp387:
	.cfi_offset %r14, -24
	movq	%rdi, %rbx
	movl	$.L__unnamed_725, %edi
	callq	count
	movl	$.L__unnamed_726, %edi
	callq	count
	movl	$.L__unnamed_727, %edi
	callq	count
	movq	%rbx, -32(%rbp)
	movl	$.L__unnamed_728, %edi
	callq	count
	movq	-32(%rbp), %r14
	movl	$.L__unnamed_729, %edi
	callq	count
	cmpq	$0, %r14
	setne	%bl
	movl	$.L__unnamed_730, %edi
	callq	count
	movzbl	%bl, %esi
	movl	$.L__unnamed_731, %edi
	callq	check
	movl	$.L__unnamed_732, %edi
	callq	count
	cmpq	$0, %r14
	je	.LBB98_4
# BB#1:
	movl	$.L__unnamed_733, %edi
	callq	count
	movq	-32(%rbp), %rbx
	movl	$.L__unnamed_734, %edi
	callq	count
	movl	$.L__unnamed_735, %edi
	callq	count
	movq	56(%rbx), %r14
	movl	$.L__unnamed_736, %edi
	callq	count
	cmpq	$0, %r14
	setne	%bl
	movl	$.L__unnamed_737, %edi
	callq	count
	movzbl	%bl, %esi
	movl	$.L__unnamed_738, %edi
	callq	check
	movl	$.L__unnamed_739, %edi
	callq	count
	cmpq	$0, %r14
	je	.LBB98_4
# BB#2:
	movl	$.L__unnamed_740, %edi
	callq	count
	movq	-32(%rbp), %rbx
	movl	$.L__unnamed_741, %edi
	callq	count
	movl	$.L__unnamed_742, %edi
	callq	count
	movq	64(%rbx), %r14
	movl	$.L__unnamed_743, %edi
	callq	count
	cmpq	$0, %r14
	setne	%bl
	movl	$.L__unnamed_744, %edi
	callq	count
	movzbl	%bl, %esi
	movl	$.L__unnamed_745, %edi
	callq	check
	movl	$.L__unnamed_746, %edi
	callq	count
	cmpq	$0, %r14
	je	.LBB98_4
# BB#3:
	movl	$.L__unnamed_747, %edi
	callq	count
	movq	-32(%rbp), %rbx
	movl	$.L__unnamed_748, %edi
	callq	count
	movl	$.L__unnamed_749, %edi
	callq	count
	movq	72(%rbx), %r14
	movl	$.L__unnamed_750, %edi
	callq	count
	cmpq	$0, %r14
	setne	%bl
	movl	$.L__unnamed_751, %edi
	callq	count
	movzbl	%bl, %esi
	movl	$.L__unnamed_752, %edi
	callq	check
	movl	$.L__unnamed_753, %edi
	callq	count
	cmpq	$0, %r14
	je	.LBB98_4
# BB#5:
	movl	$.L__unnamed_754, %edi
	callq	count
	movq	-32(%rbp), %rbx
	movl	$.L__unnamed_755, %edi
	callq	count
	movl	$.L__unnamed_756, %edi
	callq	count
	movq	$0, 40(%rbx)
	movl	$.L__unnamed_757, %edi
	callq	count
	movq	-32(%rbp), %rbx
	movl	$.L__unnamed_758, %edi
	callq	count
	movl	$.L__unnamed_759, %edi
	callq	count
	movq	$0, 16(%rbx)
	movl	$.L__unnamed_760, %edi
	callq	count
	movq	-32(%rbp), %rbx
	movl	$.L__unnamed_761, %edi
	callq	count
	movl	$.L__unnamed_762, %edi
	callq	count
	movq	56(%rbx), %r14
	movl	$.L__unnamed_763, %edi
	callq	count
	movl	$.L__unnamed_764, %edi
	callq	count
	movq	-32(%rbp), %rbx
	movl	$.L__unnamed_765, %edi
	callq	count
	movl	$.L__unnamed_766, %edi
	callq	count
	movq	56(%rbx), %rbx
	movl	$.L__unnamed_767, %edi
	callq	count
	movl	$.L__unnamed_768, %edi
	callq	count
	movl	$.L__unnamed_769, %edi
	callq	count
	movl	16(%rbx), %ebx
	movl	$.L__unnamed_770, %edi
	callq	count
	xorl	%esi, %esi
	xorl	%edx, %edx
	movq	%r14, %rdi
	movl	%ebx, %ecx
	callq	tdefl_init
	movl	$.L__unnamed_771, %edi
	callq	count
	movl	$0, -20(%rbp)
	movl	$.L__unnamed_772, %edi
	jmp	.LBB98_6
.LBB98_4:
	movl	$.L__unnamed_773, %edi
	callq	count
	movl	$-2, -20(%rbp)
	movl	$.L__unnamed_774, %edi
.LBB98_6:
	callq	count
	movl	$.L__unnamed_775, %edi
	callq	count
	movl	-20(%rbp), %ebx
	movl	$.L__unnamed_776, %edi
	callq	count
	movl	%ebx, %eax
	addq	$16, %rsp
	popq	%rbx
	popq	%r14
	popq	%rbp
	retq
.Lfunc_end98:
	.size	mz_deflateReset, .Lfunc_end98-mz_deflateReset
	.cfi_endproc

	.globl	mz_deflate
	.align	16, 0x90
	.type	mz_deflate,@function
mz_deflate:                             # @mz_deflate
	.cfi_startproc
# BB#0:
	pushq	%rbp
.Ltmp388:
	.cfi_def_cfa_offset 16
.Ltmp389:
	.cfi_offset %rbp, -16
	movq	%rsp, %rbp
.Ltmp390:
	.cfi_def_cfa_register %rbp
	pushq	%r15
	pushq	%r14
	pushq	%r13
	pushq	%r12
	pushq	%rbx
	subq	$72, %rsp
.Ltmp391:
	.cfi_offset %rbx, -56
.Ltmp392:
	.cfi_offset %r12, -48
.Ltmp393:
	.cfi_offset %r13, -40
.Ltmp394:
	.cfi_offset %r14, -32
.Ltmp395:
	.cfi_offset %r15, -24
	movl	%esi, %r14d
	movq	%rdi, %rbx
	movl	$.L__unnamed_777, %edi
	callq	count
	movl	$.L__unnamed_778, %edi
	callq	count
	movl	$.L__unnamed_779, %edi
	callq	count
	movl	$.L__unnamed_780, %edi
	callq	count
	movl	$.L__unnamed_781, %edi
	callq	count
	movl	$.L__unnamed_782, %edi
	callq	count
	movl	$.L__unnamed_783, %edi
	callq	count
	movl	$.L__unnamed_784, %edi
	callq	count
	movl	$.L__unnamed_785, %edi
	callq	count
	movl	$.L__unnamed_786, %edi
	callq	count
	movq	%rbx, -56(%rbp)
	movl	$.L__unnamed_787, %edi
	callq	count
	movl	%r14d, -60(%rbp)
	movl	$.L__unnamed_788, %edi
	callq	count
	movl	$0, -100(%rbp)
	movl	$.L__unnamed_789, %edi
	callq	count
	movq	-56(%rbp), %r14
	movl	$.L__unnamed_790, %edi
	callq	count
	cmpq	$0, %r14
	setne	%bl
	movl	$.L__unnamed_791, %edi
	callq	count
	movzbl	%bl, %esi
	movl	$.L__unnamed_792, %edi
	callq	check
	movl	$.L__unnamed_793, %edi
	callq	count
	cmpq	$0, %r14
	je	.LBB99_5
# BB#1:
	movl	$.L__unnamed_794, %edi
	callq	count
	movq	-56(%rbp), %rbx
	movl	$.L__unnamed_795, %edi
	callq	count
	movl	$.L__unnamed_796, %edi
	callq	count
	movq	56(%rbx), %r14
	movl	$.L__unnamed_797, %edi
	callq	count
	cmpq	$0, %r14
	setne	%bl
	movl	$.L__unnamed_798, %edi
	callq	count
	movzbl	%bl, %esi
	movl	$.L__unnamed_799, %edi
	callq	check
	movl	$.L__unnamed_800, %edi
	callq	count
	cmpq	$0, %r14
	je	.LBB99_5
# BB#2:
	movl	$.L__unnamed_801, %edi
	callq	count
	movl	-60(%rbp), %r14d
	movl	%r14d, %ebx
	shrl	$31, %ebx
	movl	$.L__unnamed_802, %edi
	callq	count
	movl	$.L__unnamed_803, %edi
	callq	count
	movl	$.L__unnamed_804, %edi
	movl	%ebx, %esi
	callq	check
	movl	$.L__unnamed_805, %edi
	callq	count
	testl	%r14d, %r14d
	js	.LBB99_5
# BB#3:
	movl	$.L__unnamed_806, %edi
	callq	count
	movl	-60(%rbp), %r14d
	movl	$.L__unnamed_807, %edi
	callq	count
	cmpl	$4, %r14d
	setg	%bl
	movl	$.L__unnamed_808, %edi
	callq	count
	movzbl	%bl, %esi
	movl	$.L__unnamed_809, %edi
	callq	check
	movl	$.L__unnamed_810, %edi
	callq	count
	cmpl	$4, %r14d
	jg	.LBB99_5
# BB#4:
	movl	$.L__unnamed_811, %edi
	callq	count
	movq	-56(%rbp), %rbx
	movl	$.L__unnamed_812, %edi
	callq	count
	movl	$.L__unnamed_813, %edi
	callq	count
	movq	24(%rbx), %r14
	movl	$.L__unnamed_814, %edi
	callq	count
	cmpq	$0, %r14
	setne	%bl
	movl	$.L__unnamed_815, %edi
	callq	count
	movzbl	%bl, %esi
	movl	$.L__unnamed_816, %edi
	callq	check
	movl	$.L__unnamed_817, %edi
	callq	count
	cmpq	$0, %r14
	je	.LBB99_5
# BB#6:
	movl	$.L__unnamed_818, %edi
	callq	count
	movq	-56(%rbp), %rbx
	movl	$.L__unnamed_819, %edi
	callq	count
	movl	$.L__unnamed_820, %edi
	callq	count
	movl	32(%rbx), %r14d
	movl	$.L__unnamed_821, %edi
	callq	count
	cmpl	$0, %r14d
	setne	%bl
	movl	$.L__unnamed_822, %edi
	callq	count
	movzbl	%bl, %esi
	movl	$.L__unnamed_823, %edi
	callq	check
	movl	$.L__unnamed_824, %edi
	callq	count
	cmpl	$0, %r14d
	je	.LBB99_7
# BB#8:
	movl	$.L__unnamed_825, %edi
	callq	count
	movl	-60(%rbp), %r14d
	movl	$.L__unnamed_826, %edi
	callq	count
	cmpl	$1, %r14d
	sete	%bl
	movl	$.L__unnamed_827, %edi
	callq	count
	movzbl	%bl, %esi
	movl	$.L__unnamed_828, %edi
	callq	check
	movl	$.L__unnamed_829, %edi
	callq	count
	cmpl	$1, %r14d
	jne	.LBB99_10
# BB#9:
	movl	$.L__unnamed_830, %edi
	callq	count
	movl	$2, -60(%rbp)
	movl	$.L__unnamed_831, %edi
	callq	count
.LBB99_10:
	movl	$.L__unnamed_832, %edi
	callq	count
	movq	-56(%rbp), %rbx
	movl	$.L__unnamed_833, %edi
	callq	count
	movl	$.L__unnamed_834, %edi
	callq	count
	movq	56(%rbx), %rbx
	movl	$.L__unnamed_835, %edi
	callq	count
	movl	$.L__unnamed_836, %edi
	callq	count
	movl	$.L__unnamed_837, %edi
	callq	count
	movl	132(%rbx), %r14d
	movl	$.L__unnamed_838, %edi
	callq	count
	cmpl	$1, %r14d
	sete	%bl
	movl	$.L__unnamed_839, %edi
	callq	count
	movzbl	%bl, %esi
	movl	$.L__unnamed_840, %edi
	callq	check
	movl	$.L__unnamed_841, %edi
	callq	count
	cmpl	$1, %r14d
	jne	.LBB99_14
# BB#11:
	movl	$.L__unnamed_842, %edi
	callq	count
	movl	-60(%rbp), %ebx
	movl	$.L__unnamed_843, %edi
	callq	count
	movl	$.L__unnamed_844, %edi
	callq	count
	cmpl	$4, %ebx
	movl	$1, %ebx
	je	.LBB99_13
# BB#12:                                # %select.false
	movl	$-5, %ebx
.LBB99_13:                              # %select.end
	movl	$.L__unnamed_845, %edi
	callq	count
	movl	%ebx, -44(%rbp)
	movl	$.L__unnamed_846, %edi
	jmp	.LBB99_22
.LBB99_5:
	movl	$.L__unnamed_847, %edi
	callq	count
	movl	$-2, -44(%rbp)
	movl	$.L__unnamed_848, %edi
.LBB99_22:
	callq	count
	movl	$.L__unnamed_849, %edi
	callq	count
	movl	-44(%rbp), %ebx
	movl	$.L__unnamed_850, %edi
	callq	count
	movl	%ebx, %eax
	addq	$72, %rsp
	popq	%rbx
	popq	%r12
	popq	%r13
	popq	%r14
	popq	%r15
	popq	%rbp
	retq
.LBB99_7:
	movl	$.L__unnamed_851, %edi
	callq	count
	movl	$-5, -44(%rbp)
	movl	$.L__unnamed_852, %edi
	jmp	.LBB99_22
.LBB99_14:
	movl	$.L__unnamed_853, %edi
	callq	count
	movq	-56(%rbp), %rbx
	movl	$.L__unnamed_854, %edi
	callq	count
	movl	$.L__unnamed_855, %edi
	callq	count
	movq	16(%rbx), %rbx
	movl	$.L__unnamed_856, %edi
	callq	count
	movq	%rbx, -88(%rbp)
	movl	$.L__unnamed_857, %edi
	callq	count
	movq	-56(%rbp), %rbx
	movl	$.L__unnamed_858, %edi
	callq	count
	movl	$.L__unnamed_859, %edi
	callq	count
	movq	40(%rbx), %rbx
	movl	$.L__unnamed_860, %edi
	callq	count
	movq	%rbx, -96(%rbp)
	movl	$.L__unnamed_861, %edi
	callq	count
	leaq	-80(%rbp), %r15
	jmp	.LBB99_15
	.align	16, 0x90
.LBB99_30:                              #   in Loop: Header=BB99_15 Depth=1
	movl	$.L__unnamed_862, %edi
	callq	count
	movl	$.L__unnamed_863, %edi
	callq	count
	movl	$.L__unnamed_864, %edi
	callq	count
	movl	$.L__unnamed_865, %edi
	callq	count
.LBB99_15:                              # =>This Inner Loop Header: Depth=1
	movl	$.L__unnamed_866, %edi
	callq	count
	movq	-56(%rbp), %rbx
	movl	$.L__unnamed_867, %edi
	callq	count
	movl	$.L__unnamed_868, %edi
	callq	count
	movl	8(%rbx), %ebx
	movl	$.L__unnamed_869, %edi
	callq	count
	movl	$.L__unnamed_870, %edi
	callq	count
	movq	%rbx, -72(%rbp)
	movl	$.L__unnamed_871, %edi
	callq	count
	movq	-56(%rbp), %rbx
	movl	$.L__unnamed_872, %edi
	callq	count
	movl	$.L__unnamed_873, %edi
	callq	count
	movl	32(%rbx), %ebx
	movl	$.L__unnamed_874, %edi
	callq	count
	movl	$.L__unnamed_875, %edi
	callq	count
	movq	%rbx, -80(%rbp)
	movl	$.L__unnamed_876, %edi
	callq	count
	movq	-56(%rbp), %rbx
	movl	$.L__unnamed_877, %edi
	callq	count
	movl	$.L__unnamed_878, %edi
	callq	count
	movq	56(%rbx), %r12
	movl	$.L__unnamed_879, %edi
	callq	count
	movl	$.L__unnamed_880, %edi
	callq	count
	movq	-56(%rbp), %rbx
	movl	$.L__unnamed_881, %edi
	callq	count
	movl	$.L__unnamed_882, %edi
	callq	count
	movq	(%rbx), %r13
	movl	$.L__unnamed_883, %edi
	callq	count
	movq	-56(%rbp), %rbx
	movl	$.L__unnamed_884, %edi
	callq	count
	movl	$.L__unnamed_885, %edi
	callq	count
	movq	24(%rbx), %rbx
	movl	$.L__unnamed_886, %edi
	callq	count
	movl	-60(%rbp), %r14d
	movl	$.L__unnamed_887, %edi
	callq	count
	movq	%r12, %rdi
	movq	%r13, %rsi
	leaq	-72(%rbp), %rdx
	movq	%rbx, %rcx
	movq	%r15, %r8
	movl	%r14d, %r9d
	callq	tdefl_compress
	movl	%eax, %ebx
	movl	$.L__unnamed_888, %edi
	callq	count
	movl	%ebx, -104(%rbp)
	movl	$.L__unnamed_889, %edi
	callq	count
	movl	-72(%rbp), %ebx
	movl	$.L__unnamed_890, %edi
	callq	count
	movl	$.L__unnamed_891, %edi
	callq	count
	movq	-56(%rbp), %r14
	movl	$.L__unnamed_892, %edi
	callq	count
	movl	$.L__unnamed_893, %edi
	callq	count
	addq	(%r14), %rbx
	movl	$.L__unnamed_894, %edi
	callq	count
	movl	$.L__unnamed_895, %edi
	callq	count
	movl	$.L__unnamed_896, %edi
	callq	count
	movq	%rbx, (%r14)
	movl	$.L__unnamed_897, %edi
	callq	count
	movl	-72(%rbp), %r14d
	movl	$.L__unnamed_898, %edi
	callq	count
	movl	$.L__unnamed_899, %edi
	callq	count
	movq	-56(%rbp), %r12
	movl	$.L__unnamed_900, %edi
	callq	count
	movl	$.L__unnamed_901, %edi
	callq	count
	movl	8(%r12), %ebx
	movl	$.L__unnamed_902, %edi
	callq	count
	subl	%r14d, %ebx
	movl	$.L__unnamed_903, %edi
	callq	count
	movl	%ebx, 8(%r12)
	movl	$.L__unnamed_904, %edi
	callq	count
	movl	-72(%rbp), %ebx
	movl	$.L__unnamed_905, %edi
	callq	count
	movl	$.L__unnamed_906, %edi
	callq	count
	movl	$.L__unnamed_907, %edi
	callq	count
	movq	-56(%rbp), %r14
	movl	$.L__unnamed_908, %edi
	callq	count
	movl	$.L__unnamed_909, %edi
	callq	count
	addq	16(%r14), %rbx
	movl	$.L__unnamed_910, %edi
	callq	count
	movl	$.L__unnamed_911, %edi
	callq	count
	movq	%rbx, 16(%r14)
	movl	$.L__unnamed_912, %edi
	callq	count
	movq	-56(%rbp), %rbx
	movl	$.L__unnamed_913, %edi
	callq	count
	movl	$.L__unnamed_914, %edi
	callq	count
	movq	56(%rbx), %rbx
	movl	$.L__unnamed_915, %edi
	callq	count
	movl	$.L__unnamed_916, %edi
	callq	count
	movq	%rbx, %rdi
	callq	tdefl_get_adler32
	movl	%eax, %ebx
	movl	$.L__unnamed_917, %edi
	callq	count
	movl	%ebx, %r14d
	movl	$.L__unnamed_918, %edi
	callq	count
	movq	-56(%rbp), %rbx
	movl	$.L__unnamed_919, %edi
	callq	count
	movl	$.L__unnamed_920, %edi
	callq	count
	movq	%r14, 96(%rbx)
	movl	$.L__unnamed_921, %edi
	callq	count
	movl	-80(%rbp), %ebx
	movl	$.L__unnamed_922, %edi
	callq	count
	movl	$.L__unnamed_923, %edi
	callq	count
	movq	-56(%rbp), %r14
	movl	$.L__unnamed_924, %edi
	callq	count
	movl	$.L__unnamed_925, %edi
	callq	count
	addq	24(%r14), %rbx
	movl	$.L__unnamed_926, %edi
	callq	count
	movl	$.L__unnamed_927, %edi
	callq	count
	movl	$.L__unnamed_928, %edi
	callq	count
	movq	%rbx, 24(%r14)
	movl	$.L__unnamed_929, %edi
	callq	count
	movl	-80(%rbp), %r14d
	movl	$.L__unnamed_930, %edi
	callq	count
	movl	$.L__unnamed_931, %edi
	callq	count
	movq	-56(%rbp), %r12
	movl	$.L__unnamed_932, %edi
	callq	count
	movl	$.L__unnamed_933, %edi
	callq	count
	movl	32(%r12), %ebx
	movl	$.L__unnamed_934, %edi
	callq	count
	subl	%r14d, %ebx
	movl	$.L__unnamed_935, %edi
	callq	count
	movl	%ebx, 32(%r12)
	movl	$.L__unnamed_936, %edi
	callq	count
	movl	-80(%rbp), %ebx
	movl	$.L__unnamed_937, %edi
	callq	count
	movl	$.L__unnamed_938, %edi
	callq	count
	movl	$.L__unnamed_939, %edi
	callq	count
	movq	-56(%rbp), %r14
	movl	$.L__unnamed_940, %edi
	callq	count
	movl	$.L__unnamed_941, %edi
	callq	count
	addq	40(%r14), %rbx
	movl	$.L__unnamed_942, %edi
	callq	count
	movl	$.L__unnamed_943, %edi
	callq	count
	movq	%rbx, 40(%r14)
	movl	$.L__unnamed_944, %edi
	callq	count
	movl	-104(%rbp), %r14d
	movl	%r14d, %ebx
	shrl	$31, %ebx
	movl	$.L__unnamed_945, %edi
	callq	count
	movl	$.L__unnamed_946, %edi
	callq	count
	movl	$.L__unnamed_947, %edi
	movl	%ebx, %esi
	callq	check
	movl	$.L__unnamed_948, %edi
	callq	count
	testl	%r14d, %r14d
	js	.LBB99_16
# BB#17:                                #   in Loop: Header=BB99_15 Depth=1
	movl	$.L__unnamed_949, %edi
	callq	count
	movl	-104(%rbp), %ebx
	movl	$.L__unnamed_950, %edi
	callq	count
	cmpl	$1, %ebx
	sete	%r14b
	movl	$.L__unnamed_951, %edi
	callq	count
	movzbl	%r14b, %esi
	movl	$.L__unnamed_952, %edi
	callq	check
	movl	$.L__unnamed_953, %edi
	callq	count
	cmpl	$1, %ebx
	je	.LBB99_18
# BB#19:                                #   in Loop: Header=BB99_15 Depth=1
	movl	$.L__unnamed_954, %edi
	callq	count
	movq	-56(%rbp), %rbx
	movl	$.L__unnamed_955, %edi
	callq	count
	movl	$.L__unnamed_956, %edi
	callq	count
	movl	32(%rbx), %ebx
	movl	$.L__unnamed_957, %edi
	callq	count
	cmpl	$0, %ebx
	setne	%r14b
	movl	$.L__unnamed_958, %edi
	callq	count
	movzbl	%r14b, %esi
	movl	$.L__unnamed_959, %edi
	callq	check
	movl	$.L__unnamed_960, %edi
	callq	count
	cmpl	$0, %ebx
	je	.LBB99_20
# BB#23:                                #   in Loop: Header=BB99_15 Depth=1
	movl	$.L__unnamed_961, %edi
	callq	count
	movq	-56(%rbp), %rbx
	movl	$.L__unnamed_962, %edi
	callq	count
	movl	$.L__unnamed_963, %edi
	callq	count
	movl	8(%rbx), %ebx
	movl	$.L__unnamed_964, %edi
	callq	count
	cmpl	$0, %ebx
	setne	%r14b
	movl	$.L__unnamed_965, %edi
	callq	count
	movzbl	%r14b, %esi
	movl	$.L__unnamed_966, %edi
	callq	check
	movl	$.L__unnamed_967, %edi
	callq	count
	cmpl	$0, %ebx
	jne	.LBB99_30
# BB#24:                                #   in Loop: Header=BB99_15 Depth=1
	movl	$.L__unnamed_968, %edi
	callq	count
	movl	-60(%rbp), %ebx
	movl	$.L__unnamed_969, %edi
	callq	count
	cmpl	$4, %ebx
	setne	%r14b
	movl	$.L__unnamed_970, %edi
	callq	count
	movzbl	%r14b, %esi
	movl	$.L__unnamed_971, %edi
	callq	check
	movl	$.L__unnamed_972, %edi
	callq	count
	cmpl	$4, %ebx
	je	.LBB99_30
# BB#25:
	movl	$.L__unnamed_973, %edi
	callq	count
	movl	-60(%rbp), %r14d
	movl	$.L__unnamed_974, %edi
	callq	count
	cmpl	$0, %r14d
	setne	%bl
	movl	$.L__unnamed_975, %edi
	callq	count
	movzbl	%bl, %esi
	movl	$.L__unnamed_976, %edi
	callq	check
	movl	$.L__unnamed_977, %edi
	callq	count
	cmpl	$0, %r14d
	jne	.LBB99_28
# BB#26:
	movl	$.L__unnamed_978, %edi
	callq	count
	movq	-56(%rbp), %rbx
	movl	$.L__unnamed_979, %edi
	callq	count
	movl	$.L__unnamed_980, %edi
	callq	count
	movq	16(%rbx), %r14
	movl	$.L__unnamed_981, %edi
	callq	count
	movq	-88(%rbp), %r15
	movl	$.L__unnamed_982, %edi
	callq	count
	cmpq	%r15, %r14
	setne	%bl
	movl	$.L__unnamed_983, %edi
	callq	count
	movzbl	%bl, %esi
	movl	$.L__unnamed_984, %edi
	callq	check
	movl	$.L__unnamed_985, %edi
	callq	count
	cmpq	%r15, %r14
	jne	.LBB99_28
# BB#27:
	movl	$.L__unnamed_986, %edi
	callq	count
	movq	-56(%rbp), %rbx
	movl	$.L__unnamed_987, %edi
	callq	count
	movl	$.L__unnamed_988, %edi
	callq	count
	movq	40(%rbx), %r14
	movl	$.L__unnamed_989, %edi
	callq	count
	movq	-96(%rbp), %r15
	movl	$.L__unnamed_990, %edi
	callq	count
	cmpq	%r15, %r14
	setne	%bl
	movl	$.L__unnamed_991, %edi
	callq	count
	movzbl	%bl, %esi
	movl	$.L__unnamed_992, %edi
	callq	check
	movl	$.L__unnamed_993, %edi
	callq	count
	cmpq	%r15, %r14
	je	.LBB99_29
.LBB99_28:
	movl	$.L__unnamed_994, %edi
	jmp	.LBB99_21
.LBB99_16:
	movl	$.L__unnamed_995, %edi
	callq	count
	movl	$-2, -100(%rbp)
	movl	$.L__unnamed_996, %edi
	jmp	.LBB99_21
.LBB99_18:
	movl	$.L__unnamed_997, %edi
	callq	count
	movl	$1, -100(%rbp)
	movl	$.L__unnamed_998, %edi
	jmp	.LBB99_21
.LBB99_20:
	movl	$.L__unnamed_999, %edi
.LBB99_21:
	callq	count
	movl	$.L__unnamed_1000, %edi
	callq	count
	movl	-100(%rbp), %ebx
	movl	$.L__unnamed_1001, %edi
	callq	count
	movl	%ebx, -44(%rbp)
	movl	$.L__unnamed_1002, %edi
	jmp	.LBB99_22
.LBB99_29:
	movl	$.L__unnamed_1003, %edi
	callq	count
	movl	$-5, -44(%rbp)
	movl	$.L__unnamed_1004, %edi
	jmp	.LBB99_22
.Lfunc_end99:
	.size	mz_deflate, .Lfunc_end99-mz_deflate
	.cfi_endproc

	.globl	tdefl_compress
	.align	16, 0x90
	.type	tdefl_compress,@function
tdefl_compress:                         # @tdefl_compress
	.cfi_startproc
# BB#0:
	pushq	%rbp
.Ltmp396:
	.cfi_def_cfa_offset 16
.Ltmp397:
	.cfi_offset %rbp, -16
	movq	%rsp, %rbp
.Ltmp398:
	.cfi_def_cfa_register %rbp
	pushq	%r15
	pushq	%r14
	pushq	%r13
	pushq	%r12
	pushq	%rbx
	subq	$56, %rsp
.Ltmp399:
	.cfi_offset %rbx, -56
.Ltmp400:
	.cfi_offset %r12, -48
.Ltmp401:
	.cfi_offset %r13, -40
.Ltmp402:
	.cfi_offset %r14, -32
.Ltmp403:
	.cfi_offset %r15, -24
	movl	%r9d, -96(%rbp)         # 4-byte Spill
	movq	%r8, %r15
	movq	%rcx, %r12
	movq	%rdx, %r13
	movq	%rsi, %rbx
	movq	%rdi, %r14
	movl	$.L__unnamed_1005, %edi
	callq	count
	movl	$.L__unnamed_1006, %edi
	callq	count
	movl	$.L__unnamed_1007, %edi
	callq	count
	movl	$.L__unnamed_1008, %edi
	callq	count
	movl	$.L__unnamed_1009, %edi
	callq	count
	movl	$.L__unnamed_1010, %edi
	callq	count
	movl	$.L__unnamed_1011, %edi
	callq	count
	movl	$.L__unnamed_1012, %edi
	callq	count
	movq	%r14, -56(%rbp)
	movl	$.L__unnamed_1013, %edi
	callq	count
	movq	%rbx, -64(%rbp)
	movl	$.L__unnamed_1014, %edi
	callq	count
	movq	%r13, -72(%rbp)
	movl	$.L__unnamed_1015, %edi
	callq	count
	movq	%r12, -80(%rbp)
	movl	$.L__unnamed_1016, %edi
	callq	count
	movq	%r15, -88(%rbp)
	movl	$.L__unnamed_1017, %edi
	callq	count
	movl	-96(%rbp), %eax         # 4-byte Reload
	movl	%eax, -92(%rbp)
	movl	$.L__unnamed_1018, %edi
	callq	count
	movq	-56(%rbp), %r14
	movl	$.L__unnamed_1019, %edi
	callq	count
	cmpq	$0, %r14
	setne	%bl
	movl	$.L__unnamed_1020, %edi
	callq	count
	movzbl	%bl, %esi
	movl	$.L__unnamed_1021, %edi
	callq	check
	movl	$.L__unnamed_1022, %edi
	callq	count
	cmpq	$0, %r14
	je	.LBB100_1
# BB#6:
	movl	$.L__unnamed_1023, %edi
	callq	count
	movq	-64(%rbp), %r14
	movl	$.L__unnamed_1024, %edi
	callq	count
	movq	-56(%rbp), %rbx
	movl	$.L__unnamed_1025, %edi
	callq	count
	movl	$.L__unnamed_1026, %edi
	callq	count
	movq	%r14, 136(%rbx)
	movl	$.L__unnamed_1027, %edi
	callq	count
	movq	-72(%rbp), %r14
	movl	$.L__unnamed_1028, %edi
	callq	count
	movq	-56(%rbp), %rbx
	movl	$.L__unnamed_1029, %edi
	callq	count
	movl	$.L__unnamed_1030, %edi
	callq	count
	movq	%r14, 152(%rbx)
	movl	$.L__unnamed_1031, %edi
	callq	count
	movq	-80(%rbp), %r14
	movl	$.L__unnamed_1032, %edi
	callq	count
	movq	-56(%rbp), %rbx
	movl	$.L__unnamed_1033, %edi
	callq	count
	movl	$.L__unnamed_1034, %edi
	callq	count
	movq	%r14, 144(%rbx)
	movl	$.L__unnamed_1035, %edi
	callq	count
	movq	-88(%rbp), %r14
	movl	$.L__unnamed_1036, %edi
	callq	count
	movq	-56(%rbp), %rbx
	movl	$.L__unnamed_1037, %edi
	callq	count
	movl	$.L__unnamed_1038, %edi
	callq	count
	movq	%r14, 160(%rbx)
	movl	$.L__unnamed_1039, %edi
	callq	count
	movq	-64(%rbp), %r14
	movl	$.L__unnamed_1040, %edi
	callq	count
	movq	-56(%rbp), %rbx
	movl	$.L__unnamed_1041, %edi
	callq	count
	movl	$.L__unnamed_1042, %edi
	callq	count
	movq	%r14, 176(%rbx)
	movl	$.L__unnamed_1043, %edi
	callq	count
	movq	-72(%rbp), %r14
	movl	$.L__unnamed_1044, %edi
	callq	count
	cmpq	$0, %r14
	setne	%bl
	movl	$.L__unnamed_1045, %edi
	callq	count
	movzbl	%bl, %esi
	movl	$.L__unnamed_1046, %edi
	callq	check
	movl	$.L__unnamed_1047, %edi
	callq	count
	cmpq	$0, %r14
	je	.LBB100_8
# BB#7:
	movl	$.L__unnamed_1048, %edi
	callq	count
	movq	-72(%rbp), %rbx
	movl	$.L__unnamed_1049, %edi
	callq	count
	movq	(%rbx), %r14
	movl	$.L__unnamed_1050, %edi
	callq	count
	jmp	.LBB100_9
.LBB100_1:
	movl	$.L__unnamed_1051, %edi
	callq	count
	movq	-72(%rbp), %r14
	movl	$.L__unnamed_1052, %edi
	callq	count
	cmpq	$0, %r14
	setne	%bl
	movl	$.L__unnamed_1053, %edi
	callq	count
	movzbl	%bl, %esi
	movl	$.L__unnamed_1054, %edi
	callq	check
	movl	$.L__unnamed_1055, %edi
	callq	count
	cmpq	$0, %r14
	je	.LBB100_3
# BB#2:
	movl	$.L__unnamed_1056, %edi
	callq	count
	movq	-72(%rbp), %rbx
	movl	$.L__unnamed_1057, %edi
	callq	count
	movq	$0, (%rbx)
	movl	$.L__unnamed_1058, %edi
	callq	count
.LBB100_3:
	movl	$.L__unnamed_1059, %edi
	callq	count
	movq	-88(%rbp), %r14
	movl	$.L__unnamed_1060, %edi
	callq	count
	cmpq	$0, %r14
	setne	%bl
	movl	$.L__unnamed_1061, %edi
	callq	count
	movzbl	%bl, %esi
	movl	$.L__unnamed_1062, %edi
	callq	check
	movl	$.L__unnamed_1063, %edi
	callq	count
	cmpq	$0, %r14
	je	.LBB100_5
# BB#4:
	movl	$.L__unnamed_1064, %edi
	callq	count
	movq	-88(%rbp), %rbx
	movl	$.L__unnamed_1065, %edi
	callq	count
	movq	$0, (%rbx)
	movl	$.L__unnamed_1066, %edi
	callq	count
.LBB100_5:
	movl	$.L__unnamed_1067, %edi
	callq	count
	movl	$-2, -44(%rbp)
	movl	$.L__unnamed_1068, %edi
	jmp	.LBB100_51
.LBB100_8:
	movl	$.L__unnamed_1069, %edi
	callq	count
	xorl	%r14d, %r14d
.LBB100_9:
	movl	$.L__unnamed_1070, %edi
	callq	count
	movq	-56(%rbp), %rbx
	movl	$.L__unnamed_1071, %edi
	callq	count
	movl	$.L__unnamed_1072, %edi
	callq	count
	movq	%r14, 184(%rbx)
	movl	$.L__unnamed_1073, %edi
	callq	count
	movq	-56(%rbp), %rbx
	movl	$.L__unnamed_1074, %edi
	callq	count
	movl	$.L__unnamed_1075, %edi
	callq	count
	movq	$0, 192(%rbx)
	movl	$.L__unnamed_1076, %edi
	callq	count
	movl	-92(%rbp), %r14d
	movl	$.L__unnamed_1077, %edi
	callq	count
	movq	-56(%rbp), %rbx
	movl	$.L__unnamed_1078, %edi
	callq	count
	movl	$.L__unnamed_1079, %edi
	callq	count
	movl	%r14d, 168(%rbx)
	movl	$.L__unnamed_1080, %edi
	callq	count
	movq	-56(%rbp), %rbx
	movl	$.L__unnamed_1081, %edi
	callq	count
	movl	$.L__unnamed_1082, %edi
	callq	count
	cmpq	$0, (%rbx)
	setne	%r14b
	movl	$.L__unnamed_1083, %edi
	callq	count
	movl	$.L__unnamed_1084, %edi
	callq	count
	movl	$.L__unnamed_1085, %edi
	callq	count
	movq	-80(%rbp), %r15
	movl	$.L__unnamed_1086, %edi
	callq	count
	cmpq	$0, %r15
	setne	%bl
	movl	$.L__unnamed_1087, %edi
	callq	count
	movzbl	%bl, %esi
	movl	$.L__unnamed_1088, %edi
	callq	check
	movl	$.L__unnamed_1089, %edi
	callq	count
	cmpq	$0, %r15
	movzbl	%r14b, %r14d
	movb	$1, %bl
	jne	.LBB100_11
# BB#10:
	movl	$.L__unnamed_1090, %edi
	callq	count
	cmpq	$0, -88(%rbp)
	setne	%bl
	movl	$.L__unnamed_1091, %edi
	callq	count
	movl	$.L__unnamed_1092, %edi
	callq	count
.LBB100_11:
	movl	$.L__unnamed_1093, %edi
	callq	count
	movzbl	%bl, %r15d
	movl	$.L__unnamed_1094, %edi
	callq	count
	cmpl	%r15d, %r14d
	sete	%bl
	movl	$.L__unnamed_1095, %edi
	callq	count
	movzbl	%bl, %esi
	movl	$.L__unnamed_1096, %edi
	callq	check
	movl	$.L__unnamed_1097, %edi
	callq	count
	cmpl	%r15d, %r14d
	je	.LBB100_21
# BB#12:
	movl	$.L__unnamed_1098, %edi
	callq	count
	movq	-56(%rbp), %rbx
	movl	$.L__unnamed_1099, %edi
	callq	count
	movl	$.L__unnamed_1100, %edi
	callq	count
	movl	132(%rbx), %r14d
	movl	$.L__unnamed_1101, %edi
	callq	count
	cmpl	$0, %r14d
	setne	%bl
	movl	$.L__unnamed_1102, %edi
	callq	count
	movzbl	%bl, %esi
	movl	$.L__unnamed_1103, %edi
	callq	check
	movl	$.L__unnamed_1104, %edi
	callq	count
	cmpl	$0, %r14d
	jne	.LBB100_21
# BB#13:
	movl	$.L__unnamed_1105, %edi
	callq	count
	movq	-56(%rbp), %rbx
	movl	$.L__unnamed_1106, %edi
	callq	count
	movl	$.L__unnamed_1107, %edi
	callq	count
	movl	128(%rbx), %r14d
	movl	$.L__unnamed_1108, %edi
	callq	count
	cmpl	$0, %r14d
	setne	%bl
	movl	$.L__unnamed_1109, %edi
	callq	count
	movzbl	%bl, %esi
	movl	$.L__unnamed_1110, %edi
	callq	check
	movl	$.L__unnamed_1111, %edi
	callq	count
	cmpl	$0, %r14d
	je	.LBB100_15
# BB#14:
	movl	$.L__unnamed_1112, %edi
	callq	count
	movl	-92(%rbp), %r14d
	movl	$.L__unnamed_1113, %edi
	callq	count
	cmpl	$4, %r14d
	setne	%bl
	movl	$.L__unnamed_1114, %edi
	callq	count
	movzbl	%bl, %esi
	movl	$.L__unnamed_1115, %edi
	callq	check
	movl	$.L__unnamed_1116, %edi
	callq	count
	cmpl	$4, %r14d
	jne	.LBB100_21
.LBB100_15:
	movl	$.L__unnamed_1117, %edi
	callq	count
	movq	-72(%rbp), %r14
	movl	$.L__unnamed_1118, %edi
	callq	count
	cmpq	$0, %r14
	setne	%bl
	movl	$.L__unnamed_1119, %edi
	callq	count
	movzbl	%bl, %esi
	movl	$.L__unnamed_1120, %edi
	callq	check
	movl	$.L__unnamed_1121, %edi
	callq	count
	cmpq	$0, %r14
	je	.LBB100_18
# BB#16:
	movl	$.L__unnamed_1122, %edi
	callq	count
	movq	-72(%rbp), %rbx
	movl	$.L__unnamed_1123, %edi
	callq	count
	movq	(%rbx), %r14
	movl	$.L__unnamed_1124, %edi
	callq	count
	cmpq	$0, %r14
	setne	%bl
	movl	$.L__unnamed_1125, %edi
	callq	count
	movzbl	%bl, %esi
	movl	$.L__unnamed_1126, %edi
	callq	check
	movl	$.L__unnamed_1127, %edi
	callq	count
	cmpq	$0, %r14
	je	.LBB100_18
# BB#17:
	movl	$.L__unnamed_1128, %edi
	callq	count
	movq	-64(%rbp), %r14
	movl	$.L__unnamed_1129, %edi
	callq	count
	cmpq	$0, %r14
	setne	%bl
	movl	$.L__unnamed_1130, %edi
	callq	count
	movzbl	%bl, %esi
	movl	$.L__unnamed_1131, %edi
	callq	check
	movl	$.L__unnamed_1132, %edi
	callq	count
	cmpq	$0, %r14
	je	.LBB100_21
.LBB100_18:
	movl	$.L__unnamed_1133, %edi
	callq	count
	movq	-88(%rbp), %r14
	movl	$.L__unnamed_1134, %edi
	callq	count
	cmpq	$0, %r14
	setne	%bl
	movl	$.L__unnamed_1135, %edi
	callq	count
	movzbl	%bl, %esi
	movl	$.L__unnamed_1136, %edi
	callq	check
	movl	$.L__unnamed_1137, %edi
	callq	count
	cmpq	$0, %r14
	je	.LBB100_26
# BB#19:
	movl	$.L__unnamed_1138, %edi
	callq	count
	movq	-88(%rbp), %rbx
	movl	$.L__unnamed_1139, %edi
	callq	count
	movq	(%rbx), %r14
	movl	$.L__unnamed_1140, %edi
	callq	count
	cmpq	$0, %r14
	setne	%bl
	movl	$.L__unnamed_1141, %edi
	callq	count
	movzbl	%bl, %esi
	movl	$.L__unnamed_1142, %edi
	callq	check
	movl	$.L__unnamed_1143, %edi
	callq	count
	cmpq	$0, %r14
	je	.LBB100_26
# BB#20:
	movl	$.L__unnamed_1144, %edi
	callq	count
	movq	-80(%rbp), %r14
	movl	$.L__unnamed_1145, %edi
	callq	count
	cmpq	$0, %r14
	setne	%bl
	movl	$.L__unnamed_1146, %edi
	callq	count
	movzbl	%bl, %esi
	movl	$.L__unnamed_1147, %edi
	callq	check
	movl	$.L__unnamed_1148, %edi
	callq	count
	cmpq	$0, %r14
	je	.LBB100_21
.LBB100_26:
	movl	$.L__unnamed_1149, %edi
	callq	count
	movl	-92(%rbp), %ebx
	movl	$.L__unnamed_1150, %edi
	callq	count
	cmpl	$4, %ebx
	sete	%bl
	movl	$.L__unnamed_1151, %edi
	callq	count
	movzbl	%bl, %ebx
	movl	$.L__unnamed_1152, %edi
	callq	count
	movq	-56(%rbp), %r14
	movl	$.L__unnamed_1153, %edi
	callq	count
	movl	$.L__unnamed_1154, %edi
	callq	count
	orl	128(%r14), %ebx
	movl	$.L__unnamed_1155, %edi
	callq	count
	movl	$.L__unnamed_1156, %edi
	callq	count
	movl	%ebx, 128(%r14)
	movl	$.L__unnamed_1157, %edi
	callq	count
	movq	-56(%rbp), %rbx
	movl	$.L__unnamed_1158, %edi
	callq	count
	movl	$.L__unnamed_1159, %edi
	callq	count
	movl	116(%rbx), %r14d
	movl	$.L__unnamed_1160, %edi
	callq	count
	cmpl	$0, %r14d
	setne	%bl
	movl	$.L__unnamed_1161, %edi
	callq	count
	movzbl	%bl, %esi
	movl	$.L__unnamed_1162, %edi
	callq	check
	movl	$.L__unnamed_1163, %edi
	callq	count
	cmpl	$0, %r14d
	jne	.LBB100_28
# BB#27:
	movl	$.L__unnamed_1164, %edi
	callq	count
	movq	-56(%rbp), %rbx
	movl	$.L__unnamed_1165, %edi
	callq	count
	movl	$.L__unnamed_1166, %edi
	callq	count
	movl	120(%rbx), %r14d
	movl	$.L__unnamed_1167, %edi
	callq	count
	cmpl	$0, %r14d
	setne	%bl
	movl	$.L__unnamed_1168, %edi
	callq	count
	movzbl	%bl, %esi
	movl	$.L__unnamed_1169, %edi
	callq	check
	movl	$.L__unnamed_1170, %edi
	callq	count
	cmpl	$0, %r14d
	je	.LBB100_29
.LBB100_28:
	movl	$.L__unnamed_1171, %edi
	callq	count
	movq	-56(%rbp), %rbx
	movl	$.L__unnamed_1172, %edi
	callq	count
	movq	%rbx, %rdi
	callq	tdefl_flush_output_buffer
	movl	%eax, %ebx
	movl	$.L__unnamed_1173, %edi
	callq	count
	movq	-56(%rbp), %r14
	movl	$.L__unnamed_1174, %edi
	callq	count
	movl	$.L__unnamed_1175, %edi
	callq	count
	movl	%ebx, 132(%r14)
	movl	$.L__unnamed_1176, %edi
	callq	count
	movl	%ebx, -44(%rbp)
	movl	$.L__unnamed_1177, %edi
	jmp	.LBB100_51
.LBB100_21:
	movl	$.L__unnamed_1178, %edi
	callq	count
	movq	-72(%rbp), %r14
	movl	$.L__unnamed_1179, %edi
	callq	count
	cmpq	$0, %r14
	setne	%bl
	movl	$.L__unnamed_1180, %edi
	callq	count
	movzbl	%bl, %esi
	movl	$.L__unnamed_1181, %edi
	callq	check
	movl	$.L__unnamed_1182, %edi
	callq	count
	cmpq	$0, %r14
	je	.LBB100_23
# BB#22:
	movl	$.L__unnamed_1183, %edi
	callq	count
	movq	-72(%rbp), %rbx
	movl	$.L__unnamed_1184, %edi
	callq	count
	movq	$0, (%rbx)
	movl	$.L__unnamed_1185, %edi
	callq	count
.LBB100_23:
	movl	$.L__unnamed_1186, %edi
	callq	count
	movq	-88(%rbp), %r14
	movl	$.L__unnamed_1187, %edi
	callq	count
	cmpq	$0, %r14
	setne	%bl
	movl	$.L__unnamed_1188, %edi
	callq	count
	movzbl	%bl, %esi
	movl	$.L__unnamed_1189, %edi
	callq	check
	movl	$.L__unnamed_1190, %edi
	callq	count
	cmpq	$0, %r14
	je	.LBB100_25
# BB#24:
	movl	$.L__unnamed_1191, %edi
	callq	count
	movq	-88(%rbp), %rbx
	movl	$.L__unnamed_1192, %edi
	callq	count
	movq	$0, (%rbx)
	movl	$.L__unnamed_1193, %edi
	callq	count
.LBB100_25:
	movl	$.L__unnamed_1194, %edi
	callq	count
	movq	-56(%rbp), %rbx
	movl	$.L__unnamed_1195, %edi
	callq	count
	movl	$.L__unnamed_1196, %edi
	callq	count
	movl	$-2, 132(%rbx)
	movl	$.L__unnamed_1197, %edi
	callq	count
	movl	$-2, -44(%rbp)
	movl	$.L__unnamed_1198, %edi
.LBB100_51:
	callq	count
	movl	$.L__unnamed_1199, %edi
	callq	count
	movl	-44(%rbp), %ebx
	movl	$.L__unnamed_1200, %edi
	callq	count
	movl	%ebx, %eax
	addq	$56, %rsp
	popq	%rbx
	popq	%r12
	popq	%r13
	popq	%r14
	popq	%r15
	popq	%rbp
	retq
.LBB100_29:
	movl	$.L__unnamed_1201, %edi
	callq	count
	movq	-56(%rbp), %r14
	movl	$.L__unnamed_1202, %edi
	callq	count
	movl	$.L__unnamed_1203, %edi
	callq	count
	movl	$4095, %ebx             # imm = 0xFFF
	andl	16(%r14), %ebx
	movl	$.L__unnamed_1204, %edi
	callq	count
	movl	$.L__unnamed_1205, %edi
	callq	count
	cmpl	$1, %ebx
	sete	%r14b
	movl	$.L__unnamed_1206, %edi
	callq	count
	movzbl	%r14b, %esi
	movl	$.L__unnamed_1207, %edi
	callq	check
	movl	$.L__unnamed_1208, %edi
	callq	count
	cmpl	$1, %ebx
	jne	.LBB100_35
# BB#30:
	movl	$.L__unnamed_1209, %edi
	callq	count
	movq	-56(%rbp), %rbx
	movl	$.L__unnamed_1210, %edi
	callq	count
	movl	$.L__unnamed_1211, %edi
	callq	count
	movl	16(%rbx), %r14d
	movl	$.L__unnamed_1212, %edi
	callq	count
	movl	$.L__unnamed_1213, %edi
	callq	count
	movl	$16384, %r15d           # imm = 0x4000
	movl	$16384, %ebx            # imm = 0x4000
	andl	%r14d, %ebx
	shrl	$14, %ebx
	movl	$.L__unnamed_1214, %edi
	callq	count
	movl	$.L__unnamed_1215, %edi
	movl	%ebx, %esi
	callq	check
	movl	$.L__unnamed_1216, %edi
	callq	count
	andl	%r14d, %r15d
	je	.LBB100_35
# BB#31:
	movl	$.L__unnamed_1217, %edi
	callq	count
	movq	-56(%rbp), %r14
	movl	$.L__unnamed_1218, %edi
	callq	count
	movl	$.L__unnamed_1219, %edi
	callq	count
	movl	$720896, %ebx           # imm = 0xB0000
	andl	16(%r14), %ebx
	sete	%r14b
	movl	$.L__unnamed_1220, %edi
	callq	count
	movl	$.L__unnamed_1221, %edi
	callq	count
	movl	$.L__unnamed_1222, %edi
	callq	count
	movzbl	%r14b, %esi
	movl	$.L__unnamed_1223, %edi
	callq	check
	movl	$.L__unnamed_1224, %edi
	callq	count
	testl	%ebx, %ebx
	je	.LBB100_32
.LBB100_35:
	movl	$.L__unnamed_1225, %edi
	callq	count
	movq	-56(%rbp), %rbx
	movl	$.L__unnamed_1226, %edi
	callq	count
	movq	%rbx, %rdi
	callq	tdefl_compress_normal
	movl	%eax, %r14d
	movl	$.L__unnamed_1227, %edi
	callq	count
	testl	%r14d, %r14d
	setne	%bl
	movl	$.L__unnamed_1228, %edi
	callq	count
	movzbl	%bl, %esi
	movl	$.L__unnamed_1229, %edi
	callq	check
	movl	$.L__unnamed_1230, %edi
	callq	count
	testl	%r14d, %r14d
	je	.LBB100_36
# BB#37:
	movl	$.L__unnamed_1231, %edi
.LBB100_38:
	callq	count
	movl	$.L__unnamed_1232, %edi
	callq	count
	movq	-56(%rbp), %r14
	movl	$.L__unnamed_1233, %edi
	callq	count
	movl	$.L__unnamed_1234, %edi
	callq	count
	movl	$12288, %ebx            # imm = 0x3000
	andl	16(%r14), %ebx
	setne	%r14b
	movl	$.L__unnamed_1235, %edi
	callq	count
	movl	$.L__unnamed_1236, %edi
	callq	count
	movl	$.L__unnamed_1237, %edi
	callq	count
	movzbl	%r14b, %esi
	movl	$.L__unnamed_1238, %edi
	callq	check
	movl	$.L__unnamed_1239, %edi
	callq	count
	testl	%ebx, %ebx
	je	.LBB100_41
# BB#39:
	movl	$.L__unnamed_1240, %edi
	callq	count
	movq	-64(%rbp), %r14
	movl	$.L__unnamed_1241, %edi
	callq	count
	cmpq	$0, %r14
	setne	%bl
	movl	$.L__unnamed_1242, %edi
	callq	count
	movzbl	%bl, %esi
	movl	$.L__unnamed_1243, %edi
	callq	check
	movl	$.L__unnamed_1244, %edi
	callq	count
	cmpq	$0, %r14
	je	.LBB100_41
# BB#40:
	movl	$.L__unnamed_1245, %edi
	callq	count
	movq	-56(%rbp), %rbx
	movl	$.L__unnamed_1246, %edi
	callq	count
	movl	$.L__unnamed_1247, %edi
	callq	count
	movl	32(%rbx), %r14d
	movl	$.L__unnamed_1248, %edi
	callq	count
	movl	$.L__unnamed_1249, %edi
	callq	count
	movq	-64(%rbp), %r15
	movl	$.L__unnamed_1250, %edi
	callq	count
	movq	-56(%rbp), %rbx
	movl	$.L__unnamed_1251, %edi
	callq	count
	movl	$.L__unnamed_1252, %edi
	callq	count
	movq	176(%rbx), %rbx
	movl	$.L__unnamed_1253, %edi
	callq	count
	subq	-64(%rbp), %rbx
	movl	$.L__unnamed_1254, %edi
	callq	count
	movl	$.L__unnamed_1255, %edi
	callq	count
	movl	$.L__unnamed_1256, %edi
	callq	count
	movl	$.L__unnamed_1257, %edi
	callq	count
	movq	%r14, %rdi
	movq	%r15, %rsi
	movq	%rbx, %rdx
	callq	mz_adler32
	movq	%rax, %r14
	movl	$.L__unnamed_1258, %edi
	callq	count
	movl	$.L__unnamed_1259, %edi
	callq	count
	movq	-56(%rbp), %rbx
	movl	$.L__unnamed_1260, %edi
	callq	count
	movl	$.L__unnamed_1261, %edi
	callq	count
	movl	%r14d, 32(%rbx)
	movl	$.L__unnamed_1262, %edi
	callq	count
.LBB100_41:
	movl	$.L__unnamed_1263, %edi
	callq	count
	movl	-92(%rbp), %r14d
	movl	$.L__unnamed_1264, %edi
	callq	count
	cmpl	$0, %r14d
	setne	%bl
	movl	$.L__unnamed_1265, %edi
	callq	count
	movzbl	%bl, %esi
	movl	$.L__unnamed_1266, %edi
	callq	check
	movl	$.L__unnamed_1267, %edi
	callq	count
	cmpl	$0, %r14d
	je	.LBB100_50
# BB#42:
	movl	$.L__unnamed_1268, %edi
	callq	count
	movq	-56(%rbp), %rbx
	movl	$.L__unnamed_1269, %edi
	callq	count
	movl	$.L__unnamed_1270, %edi
	callq	count
	movl	40(%rbx), %r14d
	movl	$.L__unnamed_1271, %edi
	callq	count
	cmpl	$0, %r14d
	setne	%bl
	movl	$.L__unnamed_1272, %edi
	callq	count
	movzbl	%bl, %esi
	movl	$.L__unnamed_1273, %edi
	callq	check
	movl	$.L__unnamed_1274, %edi
	callq	count
	cmpl	$0, %r14d
	jne	.LBB100_50
# BB#43:
	movl	$.L__unnamed_1275, %edi
	callq	count
	movq	-56(%rbp), %rbx
	movl	$.L__unnamed_1276, %edi
	callq	count
	movl	$.L__unnamed_1277, %edi
	callq	count
	movq	184(%rbx), %r14
	movl	$.L__unnamed_1278, %edi
	callq	count
	cmpq	$0, %r14
	setne	%bl
	movl	$.L__unnamed_1279, %edi
	callq	count
	movzbl	%bl, %esi
	movl	$.L__unnamed_1280, %edi
	callq	check
	movl	$.L__unnamed_1281, %edi
	callq	count
	cmpq	$0, %r14
	jne	.LBB100_50
# BB#44:
	movl	$.L__unnamed_1282, %edi
	callq	count
	movq	-56(%rbp), %rbx
	movl	$.L__unnamed_1283, %edi
	callq	count
	movl	$.L__unnamed_1284, %edi
	callq	count
	movl	116(%rbx), %r14d
	movl	$.L__unnamed_1285, %edi
	callq	count
	cmpl	$0, %r14d
	setne	%bl
	movl	$.L__unnamed_1286, %edi
	callq	count
	movzbl	%bl, %esi
	movl	$.L__unnamed_1287, %edi
	callq	check
	movl	$.L__unnamed_1288, %edi
	callq	count
	cmpl	$0, %r14d
	jne	.LBB100_50
# BB#45:
	movl	$.L__unnamed_1289, %edi
	callq	count
	movq	-56(%rbp), %r14
	movl	$.L__unnamed_1290, %edi
	callq	count
	movl	-92(%rbp), %ebx
	movl	$.L__unnamed_1291, %edi
	callq	count
	movq	%r14, %rdi
	movl	%ebx, %esi
	callq	tdefl_flush_block
	movl	%eax, %r14d
	movl	%r14d, %ebx
	shrl	$31, %ebx
	movl	$.L__unnamed_1292, %edi
	callq	count
	movl	$.L__unnamed_1293, %edi
	callq	count
	movl	$.L__unnamed_1294, %edi
	movl	%ebx, %esi
	callq	check
	movl	$.L__unnamed_1295, %edi
	callq	count
	testl	%r14d, %r14d
	js	.LBB100_46
# BB#47:
	movl	$.L__unnamed_1296, %edi
	callq	count
	movl	-92(%rbp), %ebx
	movl	$.L__unnamed_1297, %edi
	callq	count
	cmpl	$4, %ebx
	sete	%bl
	movl	$.L__unnamed_1298, %edi
	callq	count
	movzbl	%bl, %r14d
	movl	$.L__unnamed_1299, %edi
	callq	count
	movq	-56(%rbp), %rbx
	movl	$.L__unnamed_1300, %edi
	callq	count
	movl	$.L__unnamed_1301, %edi
	callq	count
	movl	%r14d, 120(%rbx)
	movl	$.L__unnamed_1302, %edi
	callq	count
	movl	-92(%rbp), %r14d
	movl	$.L__unnamed_1303, %edi
	callq	count
	cmpl	$3, %r14d
	sete	%bl
	movl	$.L__unnamed_1304, %edi
	callq	count
	movzbl	%bl, %esi
	movl	$.L__unnamed_1305, %edi
	callq	check
	movl	$.L__unnamed_1306, %edi
	callq	count
	cmpl	$3, %r14d
	jne	.LBB100_49
# BB#48:
	movl	$.L__unnamed_1307, %edi
	callq	count
	movl	$168618, %ebx           # imm = 0x292AA
	addq	-56(%rbp), %rbx
	movl	$.L__unnamed_1308, %edi
	callq	count
	movl	$.L__unnamed_1309, %edi
	callq	count
	movl	$.L__unnamed_1310, %edi
	callq	count
	xorl	%esi, %esi
	movl	$65536, %edx            # imm = 0x10000
	movq	%rbx, %rdi
	callq	memset
	movl	$.L__unnamed_1311, %edi
	callq	count
	movl	$103082, %ebx           # imm = 0x192AA
	addq	-56(%rbp), %rbx
	movl	$.L__unnamed_1312, %edi
	callq	count
	movl	$.L__unnamed_1313, %edi
	callq	count
	movl	$.L__unnamed_1314, %edi
	callq	count
	xorl	%esi, %esi
	movl	$65536, %edx            # imm = 0x10000
	movq	%rbx, %rdi
	callq	memset
	movl	$.L__unnamed_1315, %edi
	callq	count
	movq	-56(%rbp), %rbx
	movl	$.L__unnamed_1316, %edi
	callq	count
	movl	$.L__unnamed_1317, %edi
	callq	count
	movl	$0, 44(%rbx)
	movl	$.L__unnamed_1318, %edi
	callq	count
.LBB100_49:
	movl	$.L__unnamed_1319, %edi
	callq	count
.LBB100_50:
	movl	$.L__unnamed_1320, %edi
	callq	count
	movq	-56(%rbp), %rbx
	movl	$.L__unnamed_1321, %edi
	callq	count
	movq	%rbx, %rdi
	callq	tdefl_flush_output_buffer
	movl	%eax, %ebx
	movl	$.L__unnamed_1322, %edi
	callq	count
	movq	-56(%rbp), %r14
	movl	$.L__unnamed_1323, %edi
	callq	count
	movl	$.L__unnamed_1324, %edi
	callq	count
	movl	%ebx, 132(%r14)
	movl	$.L__unnamed_1325, %edi
	callq	count
	movl	%ebx, -44(%rbp)
	movl	$.L__unnamed_1326, %edi
	jmp	.LBB100_51
.LBB100_36:
	movl	$.L__unnamed_1327, %edi
	callq	count
	movq	-56(%rbp), %rbx
	movl	$.L__unnamed_1328, %edi
	callq	count
	movl	$.L__unnamed_1329, %edi
	callq	count
	movl	132(%rbx), %ebx
	movl	$.L__unnamed_1330, %edi
	callq	count
	movl	%ebx, -44(%rbp)
	movl	$.L__unnamed_1331, %edi
	jmp	.LBB100_51
.LBB100_32:
	movl	$.L__unnamed_1332, %edi
	callq	count
	movq	-56(%rbp), %rbx
	movl	$.L__unnamed_1333, %edi
	callq	count
	movq	%rbx, %rdi
	callq	tdefl_compress_fast
	movl	%eax, %r14d
	movl	$.L__unnamed_1334, %edi
	callq	count
	testl	%r14d, %r14d
	setne	%bl
	movl	$.L__unnamed_1335, %edi
	callq	count
	movzbl	%bl, %esi
	movl	$.L__unnamed_1336, %edi
	callq	check
	movl	$.L__unnamed_1337, %edi
	callq	count
	testl	%r14d, %r14d
	je	.LBB100_33
# BB#34:
	movl	$.L__unnamed_1338, %edi
	jmp	.LBB100_38
.LBB100_33:
	movl	$.L__unnamed_1339, %edi
	callq	count
	movq	-56(%rbp), %rbx
	movl	$.L__unnamed_1340, %edi
	callq	count
	movl	$.L__unnamed_1341, %edi
	callq	count
	movl	132(%rbx), %ebx
	movl	$.L__unnamed_1342, %edi
	callq	count
	movl	%ebx, -44(%rbp)
	movl	$.L__unnamed_1343, %edi
	jmp	.LBB100_51
.LBB100_46:
	movl	$.L__unnamed_1344, %edi
	callq	count
	movq	-56(%rbp), %rbx
	movl	$.L__unnamed_1345, %edi
	callq	count
	movl	$.L__unnamed_1346, %edi
	callq	count
	movl	132(%rbx), %ebx
	movl	$.L__unnamed_1347, %edi
	callq	count
	movl	%ebx, -44(%rbp)
	movl	$.L__unnamed_1348, %edi
	jmp	.LBB100_51
.Lfunc_end100:
	.size	tdefl_compress, .Lfunc_end100-tdefl_compress
	.cfi_endproc

	.align	16, 0x90
	.type	tdefl_flush_output_buffer,@function
tdefl_flush_output_buffer:              # @tdefl_flush_output_buffer
	.cfi_startproc
# BB#0:
	pushq	%rbp
.Ltmp404:
	.cfi_def_cfa_offset 16
.Ltmp405:
	.cfi_offset %rbp, -16
	movq	%rsp, %rbp
.Ltmp406:
	.cfi_def_cfa_register %rbp
	pushq	%r15
	pushq	%r14
	pushq	%rbx
	subq	$24, %rsp
.Ltmp407:
	.cfi_offset %rbx, -40
.Ltmp408:
	.cfi_offset %r14, -32
.Ltmp409:
	.cfi_offset %r15, -24
	movq	%rdi, %rbx
	movl	$.L__unnamed_1349, %edi
	callq	count
	movl	$.L__unnamed_1350, %edi
	callq	count
	movl	$.L__unnamed_1351, %edi
	callq	count
	movq	%rbx, -32(%rbp)
	movl	$.L__unnamed_1352, %edi
	callq	count
	movq	-32(%rbp), %rbx
	movl	$.L__unnamed_1353, %edi
	callq	count
	movl	$.L__unnamed_1354, %edi
	callq	count
	movq	152(%rbx), %r14
	movl	$.L__unnamed_1355, %edi
	callq	count
	cmpq	$0, %r14
	setne	%bl
	movl	$.L__unnamed_1356, %edi
	callq	count
	movzbl	%bl, %esi
	movl	$.L__unnamed_1357, %edi
	callq	check
	movl	$.L__unnamed_1358, %edi
	callq	count
	cmpq	$0, %r14
	je	.LBB101_2
# BB#1:
	movl	$.L__unnamed_1359, %edi
	callq	count
	movq	-32(%rbp), %rbx
	movl	$.L__unnamed_1360, %edi
	callq	count
	movl	$.L__unnamed_1361, %edi
	callq	count
	movq	176(%rbx), %r14
	movl	$.L__unnamed_1362, %edi
	callq	count
	movq	-32(%rbp), %rbx
	movl	$.L__unnamed_1363, %edi
	callq	count
	movl	$.L__unnamed_1364, %edi
	callq	count
	subq	136(%rbx), %r14
	movl	$.L__unnamed_1365, %edi
	callq	count
	movl	$.L__unnamed_1366, %edi
	callq	count
	movl	$.L__unnamed_1367, %edi
	callq	count
	movl	$.L__unnamed_1368, %edi
	callq	count
	movq	-32(%rbp), %rbx
	movl	$.L__unnamed_1369, %edi
	callq	count
	movl	$.L__unnamed_1370, %edi
	callq	count
	movq	152(%rbx), %rbx
	movl	$.L__unnamed_1371, %edi
	callq	count
	movq	%r14, (%rbx)
	movl	$.L__unnamed_1372, %edi
	callq	count
.LBB101_2:
	movl	$.L__unnamed_1373, %edi
	callq	count
	movq	-32(%rbp), %rbx
	movl	$.L__unnamed_1374, %edi
	callq	count
	movl	$.L__unnamed_1375, %edi
	callq	count
	movq	160(%rbx), %r14
	movl	$.L__unnamed_1376, %edi
	callq	count
	cmpq	$0, %r14
	setne	%bl
	movl	$.L__unnamed_1377, %edi
	callq	count
	movzbl	%bl, %esi
	movl	$.L__unnamed_1378, %edi
	callq	check
	movl	$.L__unnamed_1379, %edi
	callq	count
	cmpq	$0, %r14
	je	.LBB101_7
# BB#3:
	movl	$.L__unnamed_1380, %edi
	callq	count
	movq	-32(%rbp), %rbx
	movl	$.L__unnamed_1381, %edi
	callq	count
	movl	$.L__unnamed_1382, %edi
	callq	count
	movq	160(%rbx), %rbx
	movl	$.L__unnamed_1383, %edi
	callq	count
	movq	(%rbx), %r14
	movl	$.L__unnamed_1384, %edi
	callq	count
	movq	-32(%rbp), %rbx
	movl	$.L__unnamed_1385, %edi
	callq	count
	movl	$.L__unnamed_1386, %edi
	callq	count
	subq	192(%rbx), %r14
	movl	$.L__unnamed_1387, %edi
	callq	count
	movl	$.L__unnamed_1388, %edi
	callq	count
	movq	-32(%rbp), %rbx
	movl	$.L__unnamed_1389, %edi
	callq	count
	movl	$.L__unnamed_1390, %edi
	callq	count
	movl	116(%rbx), %ebx
	movl	$.L__unnamed_1391, %edi
	callq	count
	movl	$.L__unnamed_1392, %edi
	callq	count
	movl	$.L__unnamed_1393, %edi
	callq	count
	cmpq	%rbx, %r14
	sbbl	%esi, %esi
	andl	$1, %esi
	movl	$.L__unnamed_1394, %edi
	callq	check
	movl	$.L__unnamed_1395, %edi
	callq	count
	cmpq	%rbx, %r14
	jae	.LBB101_5
# BB#4:
	movl	$.L__unnamed_1396, %edi
	callq	count
	movq	-32(%rbp), %rbx
	movl	$.L__unnamed_1397, %edi
	callq	count
	movl	$.L__unnamed_1398, %edi
	callq	count
	movq	160(%rbx), %rbx
	movl	$.L__unnamed_1399, %edi
	callq	count
	movq	(%rbx), %rbx
	movl	$.L__unnamed_1400, %edi
	callq	count
	movq	-32(%rbp), %r14
	movl	$.L__unnamed_1401, %edi
	callq	count
	movl	$.L__unnamed_1402, %edi
	callq	count
	subq	192(%r14), %rbx
	movl	$.L__unnamed_1403, %edi
	callq	count
	movl	$.L__unnamed_1404, %edi
	jmp	.LBB101_6
.LBB101_5:
	movl	$.L__unnamed_1405, %edi
	callq	count
	movq	-32(%rbp), %rbx
	movl	$.L__unnamed_1406, %edi
	callq	count
	movl	$.L__unnamed_1407, %edi
	callq	count
	movl	116(%rbx), %ebx
	movl	$.L__unnamed_1408, %edi
	callq	count
	movl	$.L__unnamed_1409, %edi
.LBB101_6:
	callq	count
	movl	$.L__unnamed_1410, %edi
	callq	count
	movq	%rbx, -40(%rbp)
	movl	$.L__unnamed_1411, %edi
	callq	count
	movq	-32(%rbp), %rbx
	movl	$.L__unnamed_1412, %edi
	callq	count
	movl	$.L__unnamed_1413, %edi
	callq	count
	movq	144(%rbx), %r14
	movl	$.L__unnamed_1414, %edi
	callq	count
	movq	-32(%rbp), %rbx
	movl	$.L__unnamed_1415, %edi
	callq	count
	movl	$.L__unnamed_1416, %edi
	callq	count
	addq	192(%rbx), %r14
	movl	$.L__unnamed_1417, %edi
	callq	count
	movl	$.L__unnamed_1418, %edi
	callq	count
	movq	-32(%rbp), %r15
	movl	$.L__unnamed_1419, %edi
	callq	count
	movl	$.L__unnamed_1420, %edi
	callq	count
	movl	$.L__unnamed_1421, %edi
	callq	count
	movq	-32(%rbp), %rbx
	movl	$.L__unnamed_1422, %edi
	callq	count
	movl	$.L__unnamed_1423, %edi
	callq	count
	movl	112(%rbx), %ebx
	movl	$.L__unnamed_1424, %edi
	callq	count
	movl	$.L__unnamed_1425, %edi
	callq	count
	leaq	234154(%r15,%rbx), %r15
	movl	$.L__unnamed_1426, %edi
	callq	count
	movq	-40(%rbp), %rbx
	movl	$.L__unnamed_1427, %edi
	callq	count
	movq	%r14, %rdi
	movq	%r15, %rsi
	movq	%rbx, %rdx
	callq	memcpy
	movl	$.L__unnamed_1428, %edi
	callq	count
	movl	-40(%rbp), %ebx
	movl	$.L__unnamed_1429, %edi
	callq	count
	movl	$.L__unnamed_1430, %edi
	callq	count
	movq	-32(%rbp), %r14
	movl	$.L__unnamed_1431, %edi
	callq	count
	movl	$.L__unnamed_1432, %edi
	callq	count
	addl	112(%r14), %ebx
	movl	$.L__unnamed_1433, %edi
	callq	count
	movl	$.L__unnamed_1434, %edi
	callq	count
	movl	%ebx, 112(%r14)
	movl	$.L__unnamed_1435, %edi
	callq	count
	movl	-40(%rbp), %r14d
	movl	$.L__unnamed_1436, %edi
	callq	count
	movl	$.L__unnamed_1437, %edi
	callq	count
	movq	-32(%rbp), %r15
	movl	$.L__unnamed_1438, %edi
	callq	count
	movl	$.L__unnamed_1439, %edi
	callq	count
	movl	116(%r15), %ebx
	movl	$.L__unnamed_1440, %edi
	callq	count
	subl	%r14d, %ebx
	movl	$.L__unnamed_1441, %edi
	callq	count
	movl	%ebx, 116(%r15)
	movl	$.L__unnamed_1442, %edi
	callq	count
	movq	-40(%rbp), %rbx
	movl	$.L__unnamed_1443, %edi
	callq	count
	movq	-32(%rbp), %r14
	movl	$.L__unnamed_1444, %edi
	callq	count
	movl	$.L__unnamed_1445, %edi
	callq	count
	addq	192(%r14), %rbx
	movl	$.L__unnamed_1446, %edi
	callq	count
	movl	$.L__unnamed_1447, %edi
	callq	count
	movq	%rbx, 192(%r14)
	movl	$.L__unnamed_1448, %edi
	callq	count
	movq	-32(%rbp), %rbx
	movl	$.L__unnamed_1449, %edi
	callq	count
	movl	$.L__unnamed_1450, %edi
	callq	count
	movq	192(%rbx), %r14
	movl	$.L__unnamed_1451, %edi
	callq	count
	movq	-32(%rbp), %rbx
	movl	$.L__unnamed_1452, %edi
	callq	count
	movl	$.L__unnamed_1453, %edi
	callq	count
	movq	160(%rbx), %rbx
	movl	$.L__unnamed_1454, %edi
	callq	count
	movq	%r14, (%rbx)
	movl	$.L__unnamed_1455, %edi
	callq	count
.LBB101_7:
	movl	$.L__unnamed_1456, %edi
	callq	count
	movq	-32(%rbp), %rbx
	movl	$.L__unnamed_1457, %edi
	callq	count
	movl	$.L__unnamed_1458, %edi
	callq	count
	movl	120(%rbx), %r14d
	movl	$.L__unnamed_1459, %edi
	callq	count
	cmpl	$0, %r14d
	setne	%bl
	movl	$.L__unnamed_1460, %edi
	callq	count
	movzbl	%bl, %esi
	movl	$.L__unnamed_1461, %edi
	callq	check
	movl	$.L__unnamed_1462, %edi
	callq	count
	cmpl	$0, %r14d
	je	.LBB101_8
# BB#9:
	movl	$.L__unnamed_1463, %edi
	callq	count
	movq	-32(%rbp), %rbx
	movl	$.L__unnamed_1464, %edi
	callq	count
	movl	$.L__unnamed_1465, %edi
	callq	count
	cmpl	$0, 116(%rbx)
	sete	%bl
	movl	$.L__unnamed_1466, %edi
	callq	count
	movl	$.L__unnamed_1467, %edi
	callq	count
	movl	$.L__unnamed_1468, %edi
	callq	count
	jmp	.LBB101_10
.LBB101_8:
	xorl	%ebx, %ebx
.LBB101_10:
	movl	$.L__unnamed_1469, %edi
	callq	count
	movzbl	%bl, %ebx
	movl	$.L__unnamed_1470, %edi
	callq	count
	movl	%ebx, %eax
	addq	$24, %rsp
	popq	%rbx
	popq	%r14
	popq	%r15
	popq	%rbp
	retq
.Lfunc_end101:
	.size	tdefl_flush_output_buffer, .Lfunc_end101-tdefl_flush_output_buffer
	.cfi_endproc

	.align	16, 0x90
	.type	tdefl_compress_fast,@function
tdefl_compress_fast:                    # @tdefl_compress_fast
	.cfi_startproc
# BB#0:
	pushq	%rbp
.Ltmp410:
	.cfi_def_cfa_offset 16
.Ltmp411:
	.cfi_offset %rbp, -16
	movq	%rsp, %rbp
.Ltmp412:
	.cfi_def_cfa_register %rbp
	pushq	%r15
	pushq	%r14
	pushq	%r13
	pushq	%r12
	pushq	%rbx
	subq	$152, %rsp
.Ltmp413:
	.cfi_offset %rbx, -56
.Ltmp414:
	.cfi_offset %r12, -48
.Ltmp415:
	.cfi_offset %r13, -40
.Ltmp416:
	.cfi_offset %r14, -32
.Ltmp417:
	.cfi_offset %r15, -24
	movq	%rdi, %rbx
	movl	$.L__unnamed_1471, %edi
	callq	count
	movl	$.L__unnamed_1472, %edi
	callq	count
	movl	$.L__unnamed_1473, %edi
	callq	count
	movl	$.L__unnamed_1474, %edi
	callq	count
	movl	$.L__unnamed_1475, %edi
	callq	count
	movl	$.L__unnamed_1476, %edi
	callq	count
	movl	$.L__unnamed_1477, %edi
	callq	count
	movl	$.L__unnamed_1478, %edi
	callq	count
	movl	$.L__unnamed_1479, %edi
	callq	count
	movl	$.L__unnamed_1480, %edi
	callq	count
	movl	$.L__unnamed_1481, %edi
	callq	count
	movl	$.L__unnamed_1482, %edi
	callq	count
	movl	$.L__unnamed_1483, %edi
	callq	count
	movl	$.L__unnamed_1484, %edi
	callq	count
	movl	$.L__unnamed_1485, %edi
	callq	count
	movl	$.L__unnamed_1486, %edi
	callq	count
	movl	$.L__unnamed_1487, %edi
	callq	count
	movl	$.L__unnamed_1488, %edi
	callq	count
	movl	$.L__unnamed_1489, %edi
	callq	count
	movl	$.L__unnamed_1490, %edi
	callq	count
	movl	$.L__unnamed_1491, %edi
	callq	count
	movl	$.L__unnamed_1492, %edi
	callq	count
	movl	$.L__unnamed_1493, %edi
	callq	count
	movl	$.L__unnamed_1494, %edi
	callq	count
	movl	$.L__unnamed_1495, %edi
	callq	count
	movl	$.L__unnamed_1496, %edi
	callq	count
	movl	$.L__unnamed_1497, %edi
	callq	count
	movl	$.L__unnamed_1498, %edi
	callq	count
	movl	$.L__unnamed_1499, %edi
	callq	count
	movq	%rbx, -56(%rbp)
	movl	$.L__unnamed_1500, %edi
	callq	count
	movq	-56(%rbp), %rbx
	movl	$.L__unnamed_1501, %edi
	callq	count
	movl	$.L__unnamed_1502, %edi
	callq	count
	movl	36(%rbx), %ebx
	movl	$.L__unnamed_1503, %edi
	callq	count
	movl	%ebx, -60(%rbp)
	movl	$.L__unnamed_1504, %edi
	callq	count
	movq	-56(%rbp), %rbx
	movl	$.L__unnamed_1505, %edi
	callq	count
	movl	$.L__unnamed_1506, %edi
	callq	count
	movl	40(%rbx), %ebx
	movl	$.L__unnamed_1507, %edi
	callq	count
	movl	%ebx, -64(%rbp)
	movl	$.L__unnamed_1508, %edi
	callq	count
	movq	-56(%rbp), %rbx
	movl	$.L__unnamed_1509, %edi
	callq	count
	movl	$.L__unnamed_1510, %edi
	callq	count
	movl	44(%rbx), %ebx
	movl	$.L__unnamed_1511, %edi
	callq	count
	movl	%ebx, -68(%rbp)
	movl	$.L__unnamed_1512, %edi
	callq	count
	movq	-56(%rbp), %rbx
	movl	$.L__unnamed_1513, %edi
	callq	count
	movl	$.L__unnamed_1514, %edi
	callq	count
	movl	84(%rbx), %ebx
	movl	$.L__unnamed_1515, %edi
	callq	count
	movl	%ebx, -72(%rbp)
	movl	$.L__unnamed_1516, %edi
	callq	count
	movq	-56(%rbp), %rbx
	movl	$.L__unnamed_1517, %edi
	callq	count
	movl	$.L__unnamed_1518, %edi
	callq	count
	movl	80(%rbx), %ebx
	movl	$.L__unnamed_1519, %edi
	callq	count
	movl	%ebx, -76(%rbp)
	movl	$.L__unnamed_1520, %edi
	callq	count
	movq	-56(%rbp), %rbx
	movl	$.L__unnamed_1521, %edi
	callq	count
	movl	$.L__unnamed_1522, %edi
	callq	count
	movq	48(%rbx), %rbx
	movl	$.L__unnamed_1523, %edi
	callq	count
	movq	%rbx, -88(%rbp)
	movl	$.L__unnamed_1524, %edi
	callq	count
	movq	-56(%rbp), %rbx
	movl	$.L__unnamed_1525, %edi
	callq	count
	movl	$.L__unnamed_1526, %edi
	callq	count
	movq	56(%rbx), %rbx
	movl	$.L__unnamed_1527, %edi
	callq	count
	movq	%rbx, -96(%rbp)
	movl	$.L__unnamed_1528, %edi
	callq	count
	movl	$32767, %ebx            # imm = 0x7FFF
	andl	-60(%rbp), %ebx
	movl	$.L__unnamed_1529, %edi
	callq	count
	movl	$.L__unnamed_1530, %edi
	callq	count
	movl	%ebx, -100(%rbp)
	movl	$.L__unnamed_1531, %edi
	callq	count
	movl	$16777215, %r12d        # imm = 0xFFFFFF
	movl	$103074, %r13d          # imm = 0x192A2
	jmp	.LBB102_1
	.align	16, 0x90
.LBB102_91:                             #   in Loop: Header=BB102_1 Depth=1
	movl	$.L__unnamed_1532, %edi
	callq	count
.LBB102_1:                              # =>This Loop Header: Depth=1
                                        #     Child Loop BB102_11 Depth 2
                                        #     Child Loop BB102_30 Depth 2
                                        #       Child Loop BB102_34 Depth 3
                                        #     Child Loop BB102_78 Depth 2
	movl	$.L__unnamed_1533, %edi
	callq	count
	movq	-56(%rbp), %rbx
	movl	$.L__unnamed_1534, %edi
	callq	count
	movl	$.L__unnamed_1535, %edi
	callq	count
	movq	184(%rbx), %rbx
	movl	$.L__unnamed_1536, %edi
	callq	count
	cmpq	$0, %rbx
	setne	%r14b
	movl	$.L__unnamed_1537, %edi
	callq	count
	movzbl	%r14b, %esi
	movl	$.L__unnamed_1538, %edi
	callq	check
	movl	$.L__unnamed_1539, %edi
	callq	count
	cmpq	$0, %rbx
	movb	$1, %bl
	jne	.LBB102_6
# BB#2:                                 #   in Loop: Header=BB102_1 Depth=1
	movl	$.L__unnamed_1540, %edi
	callq	count
	movq	-56(%rbp), %rbx
	movl	$.L__unnamed_1541, %edi
	callq	count
	movl	$.L__unnamed_1542, %edi
	callq	count
	movl	168(%rbx), %ebx
	movl	$.L__unnamed_1543, %edi
	callq	count
	cmpl	$0, %ebx
	setne	%r14b
	movl	$.L__unnamed_1544, %edi
	callq	count
	movzbl	%r14b, %esi
	movl	$.L__unnamed_1545, %edi
	callq	check
	movl	$.L__unnamed_1546, %edi
	callq	count
	cmpl	$0, %ebx
	je	.LBB102_3
# BB#4:                                 #   in Loop: Header=BB102_1 Depth=1
	movl	$.L__unnamed_1547, %edi
	callq	count
	cmpl	$0, -64(%rbp)
	setne	%bl
	movl	$.L__unnamed_1548, %edi
	callq	count
	movl	$.L__unnamed_1549, %edi
	callq	count
	jmp	.LBB102_5
.LBB102_3:                              #   in Loop: Header=BB102_1 Depth=1
	xorl	%ebx, %ebx
.LBB102_5:                              #   in Loop: Header=BB102_1 Depth=1
	movl	$.L__unnamed_1550, %edi
	callq	count
.LBB102_6:                              #   in Loop: Header=BB102_1 Depth=1
	movl	$.L__unnamed_1551, %edi
	callq	count
	movzbl	%bl, %ebx
	movl	$.L__unnamed_1552, %edi
	movl	%ebx, %esi
	callq	check
	movl	$.L__unnamed_1553, %edi
	callq	count
	testb	%bl, %bl
	je	.LBB102_27
# BB#7:                                 #   in Loop: Header=BB102_1 Depth=1
	movl	$.L__unnamed_1554, %edi
	callq	count
	movl	$4096, -104(%rbp)       # imm = 0x1000
	movl	$.L__unnamed_1555, %edi
	callq	count
	movl	-60(%rbp), %ebx
	movl	$.L__unnamed_1556, %edi
	callq	count
	addl	-64(%rbp), %ebx
	movl	$.L__unnamed_1557, %edi
	callq	count
	movl	$.L__unnamed_1558, %edi
	callq	count
	andl	$32767, %ebx            # imm = 0x7FFF
	movl	$.L__unnamed_1559, %edi
	callq	count
	movl	%ebx, -108(%rbp)
	movl	$.L__unnamed_1560, %edi
	callq	count
	movq	-56(%rbp), %rbx
	movl	$.L__unnamed_1561, %edi
	callq	count
	movl	$.L__unnamed_1562, %edi
	callq	count
	movq	184(%rbx), %r14
	movl	$.L__unnamed_1563, %edi
	callq	count
	movl	$4096, %ebx             # imm = 0x1000
	subl	-64(%rbp), %ebx
	movl	$.L__unnamed_1564, %edi
	callq	count
	movl	$.L__unnamed_1565, %edi
	callq	count
	movl	$.L__unnamed_1566, %edi
	callq	count
	movl	$.L__unnamed_1567, %edi
	callq	count
	cmpq	%rbx, %r14
	sbbl	%esi, %esi
	andl	$1, %esi
	movl	$.L__unnamed_1568, %edi
	callq	check
	movl	$.L__unnamed_1569, %edi
	callq	count
	cmpq	%rbx, %r14
	jae	.LBB102_9
# BB#8:                                 #   in Loop: Header=BB102_1 Depth=1
	movl	$.L__unnamed_1570, %edi
	callq	count
	movq	-56(%rbp), %rbx
	movl	$.L__unnamed_1571, %edi
	callq	count
	movl	$.L__unnamed_1572, %edi
	callq	count
	movq	184(%rbx), %rbx
	movl	$.L__unnamed_1573, %edi
	jmp	.LBB102_10
	.align	16, 0x90
.LBB102_9:                              #   in Loop: Header=BB102_1 Depth=1
	movl	$.L__unnamed_1574, %edi
	callq	count
	movl	$4096, %ebx             # imm = 0x1000
	subl	-64(%rbp), %ebx
	movl	$.L__unnamed_1575, %edi
	callq	count
	movl	$.L__unnamed_1576, %edi
	callq	count
	movl	$.L__unnamed_1577, %edi
.LBB102_10:                             #   in Loop: Header=BB102_1 Depth=1
	callq	count
	movl	$.L__unnamed_1578, %edi
	callq	count
	movl	$.L__unnamed_1579, %edi
	callq	count
	movl	%ebx, -112(%rbp)
	movl	$.L__unnamed_1580, %edi
	callq	count
	movl	-112(%rbp), %r14d
	movl	$.L__unnamed_1581, %edi
	callq	count
	movl	$.L__unnamed_1582, %edi
	callq	count
	movq	-56(%rbp), %r15
	movl	$.L__unnamed_1583, %edi
	callq	count
	movl	$.L__unnamed_1584, %edi
	callq	count
	movq	184(%r15), %rbx
	movl	$.L__unnamed_1585, %edi
	callq	count
	subq	%r14, %rbx
	movl	$.L__unnamed_1586, %edi
	callq	count
	movq	%rbx, 184(%r15)
	movl	$.L__unnamed_1587, %edi
	callq	count
	movl	-112(%rbp), %ebx
	movl	$.L__unnamed_1588, %edi
	callq	count
	addl	-64(%rbp), %ebx
	movl	$.L__unnamed_1589, %edi
	callq	count
	movl	$.L__unnamed_1590, %edi
	callq	count
	movl	%ebx, -64(%rbp)
	movl	$.L__unnamed_1591, %edi
	jmp	.LBB102_11
	.align	16, 0x90
.LBB102_20:                             #   in Loop: Header=BB102_11 Depth=2
	movl	$.L__unnamed_1592, %edi
	callq	count
	movl	-116(%rbp), %ebx
	movl	$.L__unnamed_1593, %edi
	callq	count
	movq	-56(%rbp), %r14
	movl	$.L__unnamed_1594, %edi
	callq	count
	movl	$.L__unnamed_1595, %edi
	callq	count
	addq	176(%r14), %rbx
	movl	$.L__unnamed_1596, %edi
	callq	count
	movl	$.L__unnamed_1597, %edi
	callq	count
	movl	$.L__unnamed_1598, %edi
	callq	count
	movq	%rbx, 176(%r14)
	movl	$.L__unnamed_1599, %edi
	callq	count
	movl	-108(%rbp), %ebx
	movl	$.L__unnamed_1600, %edi
	callq	count
	addl	-116(%rbp), %ebx
	movl	$.L__unnamed_1601, %edi
	callq	count
	movl	$.L__unnamed_1602, %edi
	callq	count
	andl	$32767, %ebx            # imm = 0x7FFF
	movl	$.L__unnamed_1603, %edi
	callq	count
	movl	%ebx, -108(%rbp)
	movl	$.L__unnamed_1604, %edi
	callq	count
	movl	-116(%rbp), %r14d
	movl	$.L__unnamed_1605, %edi
	callq	count
	movl	-112(%rbp), %ebx
	movl	$.L__unnamed_1606, %edi
	callq	count
	subl	%r14d, %ebx
	movl	$.L__unnamed_1607, %edi
	callq	count
	movl	%ebx, -112(%rbp)
	movl	$.L__unnamed_1608, %edi
.LBB102_11:                             #   Parent Loop BB102_1 Depth=1
                                        # =>  This Inner Loop Header: Depth=2
	callq	count
	movl	$.L__unnamed_1609, %edi
	callq	count
	movl	-112(%rbp), %ebx
	movl	$.L__unnamed_1610, %edi
	callq	count
	cmpl	$0, %ebx
	setne	%r14b
	movl	$.L__unnamed_1611, %edi
	callq	count
	movzbl	%r14b, %esi
	movl	$.L__unnamed_1612, %edi
	callq	check
	movl	$.L__unnamed_1613, %edi
	callq	count
	cmpl	$0, %ebx
	je	.LBB102_21
# BB#12:                                #   in Loop: Header=BB102_11 Depth=2
	movl	$.L__unnamed_1614, %edi
	callq	count
	movl	$32768, %ebx            # imm = 0x8000
	subl	-108(%rbp), %ebx
	movl	$.L__unnamed_1615, %edi
	callq	count
	movl	$.L__unnamed_1616, %edi
	callq	count
	movl	-112(%rbp), %r14d
	movl	$.L__unnamed_1617, %edi
	callq	count
	movl	$.L__unnamed_1618, %edi
	callq	count
	cmpl	%r14d, %ebx
	sbbl	%esi, %esi
	andl	$1, %esi
	movl	$.L__unnamed_1619, %edi
	callq	check
	movl	$.L__unnamed_1620, %edi
	callq	count
	cmpl	%r14d, %ebx
	jae	.LBB102_14
# BB#13:                                #   in Loop: Header=BB102_11 Depth=2
	movl	$.L__unnamed_1621, %edi
	callq	count
	movl	$32768, %ebx            # imm = 0x8000
	subl	-108(%rbp), %ebx
	movl	$.L__unnamed_1622, %edi
	callq	count
	movl	$.L__unnamed_1623, %edi
	jmp	.LBB102_15
	.align	16, 0x90
.LBB102_14:                             #   in Loop: Header=BB102_11 Depth=2
	movl	$.L__unnamed_1624, %edi
	callq	count
	movl	-112(%rbp), %ebx
	movl	$.L__unnamed_1625, %edi
.LBB102_15:                             #   in Loop: Header=BB102_11 Depth=2
	callq	count
	movl	$.L__unnamed_1626, %edi
	callq	count
	movl	%ebx, -116(%rbp)
	movl	$.L__unnamed_1627, %edi
	callq	count
	movq	-56(%rbp), %r14
	movl	$.L__unnamed_1628, %edi
	callq	count
	movl	$.L__unnamed_1629, %edi
	callq	count
	movl	$.L__unnamed_1630, %edi
	callq	count
	movl	-108(%rbp), %ebx
	movl	$.L__unnamed_1631, %edi
	callq	count
	movl	$.L__unnamed_1632, %edi
	callq	count
	leaq	200(%r14,%rbx), %r14
	movl	$.L__unnamed_1633, %edi
	callq	count
	movq	-56(%rbp), %rbx
	movl	$.L__unnamed_1634, %edi
	callq	count
	movl	$.L__unnamed_1635, %edi
	callq	count
	movq	176(%rbx), %r15
	movl	$.L__unnamed_1636, %edi
	callq	count
	movl	-116(%rbp), %ebx
	movl	$.L__unnamed_1637, %edi
	callq	count
	movl	$.L__unnamed_1638, %edi
	callq	count
	movq	%r14, %rdi
	movq	%r15, %rsi
	movq	%rbx, %rdx
	callq	memcpy
	movl	$.L__unnamed_1639, %edi
	callq	count
	movl	-108(%rbp), %ebx
	movl	$.L__unnamed_1640, %edi
	callq	count
	movl	$.L__unnamed_1641, %edi
	callq	count
	cmpl	$257, %ebx              # imm = 0x101
	sbbl	%esi, %esi
	andl	$1, %esi
	movl	$.L__unnamed_1642, %edi
	callq	check
	movl	$.L__unnamed_1643, %edi
	callq	count
	cmpl	$256, %ebx              # imm = 0x100
	ja	.LBB102_20
# BB#16:                                #   in Loop: Header=BB102_11 Depth=2
	movl	$.L__unnamed_1644, %edi
	callq	count
	movq	-56(%rbp), %r15
	movl	$.L__unnamed_1645, %edi
	callq	count
	movl	$.L__unnamed_1646, %edi
	callq	count
	movl	$.L__unnamed_1647, %edi
	callq	count
	movl	$.L__unnamed_1648, %edi
	callq	count
	movl	-108(%rbp), %r12d
	movl	$.L__unnamed_1649, %edi
	callq	count
	movl	$.L__unnamed_1650, %edi
	callq	count
	movl	$.L__unnamed_1651, %edi
	callq	count
	movq	-56(%rbp), %rbx
	movl	$.L__unnamed_1652, %edi
	callq	count
	movl	$.L__unnamed_1653, %edi
	callq	count
	movq	176(%rbx), %r14
	movl	$.L__unnamed_1654, %edi
	callq	count
	movl	-116(%rbp), %ebx
	movl	$.L__unnamed_1655, %edi
	callq	count
	movl	$257, %r13d             # imm = 0x101
	subl	-108(%rbp), %r13d
	movl	$.L__unnamed_1656, %edi
	callq	count
	movl	$.L__unnamed_1657, %edi
	callq	count
	movl	$.L__unnamed_1658, %edi
	callq	count
	cmpl	%r13d, %ebx
	sbbl	%esi, %esi
	andl	$1, %esi
	movl	$.L__unnamed_1659, %edi
	callq	check
	movl	$.L__unnamed_1660, %edi
	callq	count
	cmpl	%r13d, %ebx
	leaq	32968(%r15,%r12), %r15
	jae	.LBB102_18
# BB#17:                                #   in Loop: Header=BB102_11 Depth=2
	movl	$.L__unnamed_1661, %edi
	callq	count
	movl	-116(%rbp), %ebx
	movl	$.L__unnamed_1662, %edi
	jmp	.LBB102_19
	.align	16, 0x90
.LBB102_18:                             #   in Loop: Header=BB102_11 Depth=2
	movl	$.L__unnamed_1663, %edi
	callq	count
	movl	$257, %ebx              # imm = 0x101
	subl	-108(%rbp), %ebx
	movl	$.L__unnamed_1664, %edi
	callq	count
	movl	$.L__unnamed_1665, %edi
.LBB102_19:                             #   in Loop: Header=BB102_11 Depth=2
	callq	count
	movl	$16777215, %r12d        # imm = 0xFFFFFF
	movl	$103074, %r13d          # imm = 0x192A2
	movl	$.L__unnamed_1666, %edi
	callq	count
	movl	%ebx, %ebx
	movl	$.L__unnamed_1667, %edi
	callq	count
	movq	%r15, %rdi
	movq	%r14, %rsi
	movq	%rbx, %rdx
	callq	memcpy
	movl	$.L__unnamed_1668, %edi
	callq	count
	jmp	.LBB102_20
	.align	16, 0x90
.LBB102_21:                             #   in Loop: Header=BB102_1 Depth=1
	movl	$.L__unnamed_1669, %edi
	callq	count
	movl	$32768, %ebx            # imm = 0x8000
	subl	-64(%rbp), %ebx
	movl	$.L__unnamed_1670, %edi
	callq	count
	movl	$.L__unnamed_1671, %edi
	callq	count
	movl	-68(%rbp), %r14d
	movl	$.L__unnamed_1672, %edi
	callq	count
	movl	$.L__unnamed_1673, %edi
	callq	count
	cmpl	%r14d, %ebx
	sbbl	%esi, %esi
	andl	$1, %esi
	movl	$.L__unnamed_1674, %edi
	callq	check
	movl	$.L__unnamed_1675, %edi
	callq	count
	cmpl	%r14d, %ebx
	jae	.LBB102_23
# BB#22:                                #   in Loop: Header=BB102_1 Depth=1
	movl	$.L__unnamed_1676, %edi
	callq	count
	movl	$32768, %ebx            # imm = 0x8000
	subl	-64(%rbp), %ebx
	movl	$.L__unnamed_1677, %edi
	callq	count
	movl	$.L__unnamed_1678, %edi
	jmp	.LBB102_24
	.align	16, 0x90
.LBB102_23:                             #   in Loop: Header=BB102_1 Depth=1
	movl	$.L__unnamed_1679, %edi
	callq	count
	movl	-68(%rbp), %ebx
	movl	$.L__unnamed_1680, %edi
.LBB102_24:                             #   in Loop: Header=BB102_1 Depth=1
	callq	count
	movl	$.L__unnamed_1681, %edi
	callq	count
	movl	%ebx, -68(%rbp)
	movl	$.L__unnamed_1682, %edi
	callq	count
	movq	-56(%rbp), %rbx
	movl	$.L__unnamed_1683, %edi
	callq	count
	movl	$.L__unnamed_1684, %edi
	callq	count
	movl	168(%rbx), %ebx
	movl	$.L__unnamed_1685, %edi
	callq	count
	cmpl	$0, %ebx
	setne	%r14b
	movl	$.L__unnamed_1686, %edi
	callq	count
	movzbl	%r14b, %esi
	movl	$.L__unnamed_1687, %edi
	callq	check
	movl	$.L__unnamed_1688, %edi
	callq	count
	cmpl	$0, %ebx
	jne	.LBB102_29
# BB#25:                                #   in Loop: Header=BB102_1 Depth=1
	movl	$.L__unnamed_1689, %edi
	callq	count
	movl	-64(%rbp), %ebx
	movl	$.L__unnamed_1690, %edi
	callq	count
	movl	$.L__unnamed_1691, %edi
	callq	count
	cmpl	$4096, %ebx             # imm = 0x1000
	sbbl	%esi, %esi
	andl	$1, %esi
	movl	$.L__unnamed_1692, %edi
	callq	check
	movl	$.L__unnamed_1693, %edi
	callq	count
	cmpl	$4095, %ebx             # imm = 0xFFF
	jbe	.LBB102_26
.LBB102_29:                             #   in Loop: Header=BB102_1 Depth=1
	movl	$.L__unnamed_1694, %edi
	jmp	.LBB102_30
	.align	16, 0x90
.LBB102_76:                             #   in Loop: Header=BB102_30 Depth=2
	movl	$.L__unnamed_1695, %edi
.LBB102_30:                             #   Parent Loop BB102_1 Depth=1
                                        # =>  This Loop Header: Depth=2
                                        #       Child Loop BB102_34 Depth 3
	callq	count
	movl	$.L__unnamed_1696, %edi
	callq	count
	movl	-64(%rbp), %ebx
	movl	$.L__unnamed_1697, %edi
	callq	count
	cmpl	$3, %ebx
	seta	%r14b
	movl	$.L__unnamed_1698, %edi
	callq	count
	movzbl	%r14b, %esi
	movl	$.L__unnamed_1699, %edi
	callq	check
	movl	$.L__unnamed_1700, %edi
	callq	count
	cmpl	$4, %ebx
	jb	.LBB102_77
# BB#31:                                #   in Loop: Header=BB102_30 Depth=2
	movl	$.L__unnamed_1701, %edi
	callq	count
	movl	$1, -124(%rbp)
	movl	$.L__unnamed_1702, %edi
	callq	count
	movq	-56(%rbp), %r14
	movl	$.L__unnamed_1703, %edi
	callq	count
	movl	$.L__unnamed_1704, %edi
	callq	count
	movl	$.L__unnamed_1705, %edi
	callq	count
	movl	-100(%rbp), %ebx
	movl	$.L__unnamed_1706, %edi
	callq	count
	movl	$.L__unnamed_1707, %edi
	callq	count
	leaq	200(%r14,%rbx), %rbx
	movl	$.L__unnamed_1708, %edi
	callq	count
	movq	%rbx, -136(%rbp)
	movl	$.L__unnamed_1709, %edi
	callq	count
	movq	-136(%rbp), %rbx
	movl	$.L__unnamed_1710, %edi
	callq	count
	movl	$.L__unnamed_1711, %edi
	callq	count
	movl	(%rbx), %ebx
	andl	%r12d, %ebx
	movl	$.L__unnamed_1712, %edi
	callq	count
	movl	$.L__unnamed_1713, %edi
	callq	count
	movl	%ebx, -140(%rbp)
	movl	$.L__unnamed_1714, %edi
	callq	count
	movl	-140(%rbp), %r14d
	movl	$.L__unnamed_1715, %edi
	callq	count
	movl	-140(%rbp), %ebx
	movl	$.L__unnamed_1716, %edi
	callq	count
	shrl	$17, %ebx
	movl	$.L__unnamed_1717, %edi
	callq	count
	xorl	%r14d, %ebx
	movl	$.L__unnamed_1718, %edi
	callq	count
	andl	$4095, %ebx             # imm = 0xFFF
	movl	$.L__unnamed_1719, %edi
	callq	count
	movl	%ebx, -144(%rbp)
	movl	$.L__unnamed_1720, %edi
	callq	count
	movl	-144(%rbp), %r14d
	movl	$.L__unnamed_1721, %edi
	callq	count
	movl	$.L__unnamed_1722, %edi
	callq	count
	movq	-56(%rbp), %rbx
	movl	$.L__unnamed_1723, %edi
	callq	count
	movl	$.L__unnamed_1724, %edi
	callq	count
	movl	$.L__unnamed_1725, %edi
	callq	count
	movzwl	168618(%rbx,%r14,2), %ebx
	movl	$.L__unnamed_1726, %edi
	callq	count
	movl	$.L__unnamed_1727, %edi
	callq	count
	movl	%ebx, -148(%rbp)
	movl	$.L__unnamed_1728, %edi
	callq	count
	movw	-60(%rbp), %r14w
	movl	$.L__unnamed_1729, %edi
	callq	count
	movl	$.L__unnamed_1730, %edi
	callq	count
	movl	-144(%rbp), %r15d
	movl	$.L__unnamed_1731, %edi
	callq	count
	movl	$.L__unnamed_1732, %edi
	callq	count
	movq	-56(%rbp), %rbx
	movl	$.L__unnamed_1733, %edi
	callq	count
	movl	$.L__unnamed_1734, %edi
	callq	count
	movl	$.L__unnamed_1735, %edi
	callq	count
	movw	%r14w, 168618(%rbx,%r15,2)
	movl	$.L__unnamed_1736, %edi
	callq	count
	movl	-60(%rbp), %ebx
	movl	$.L__unnamed_1737, %edi
	callq	count
	subl	-148(%rbp), %ebx
	movl	$.L__unnamed_1738, %edi
	callq	count
	movl	$.L__unnamed_1739, %edi
	callq	count
	movl	$.L__unnamed_1740, %edi
	callq	count
	movzwl	%bx, %ebx
	movl	$.L__unnamed_1741, %edi
	callq	count
	movl	%ebx, -120(%rbp)
	movl	$.L__unnamed_1742, %edi
	callq	count
	movl	-68(%rbp), %r14d
	movl	$.L__unnamed_1743, %edi
	callq	count
	cmpl	%r14d, %ebx
	setbe	%r15b
	movl	$.L__unnamed_1744, %edi
	callq	count
	movzbl	%r15b, %esi
	movl	$.L__unnamed_1745, %edi
	callq	check
	movl	$.L__unnamed_1746, %edi
	callq	count
	cmpl	%r14d, %ebx
	ja	.LBB102_63
# BB#32:                                #   in Loop: Header=BB102_30 Depth=2
	movl	$.L__unnamed_1747, %edi
	callq	count
	movq	-56(%rbp), %r14
	movl	$.L__unnamed_1748, %edi
	callq	count
	movl	$.L__unnamed_1749, %edi
	callq	count
	movl	$.L__unnamed_1750, %edi
	callq	count
	movl	-148(%rbp), %ebx
	movl	$.L__unnamed_1751, %edi
	callq	count
	movl	$.L__unnamed_1752, %edi
	callq	count
	andl	$32767, %ebx            # imm = 0x7FFF
	movl	%ebx, -148(%rbp)
	movl	$.L__unnamed_1753, %edi
	callq	count
	movl	$.L__unnamed_1754, %edi
	callq	count
	movl	$.L__unnamed_1755, %edi
	callq	count
	movl	$.L__unnamed_1756, %edi
	callq	count
	movl	200(%r14,%rbx), %ebx
	andl	%r12d, %ebx
	movl	$.L__unnamed_1757, %edi
	callq	count
	movl	$.L__unnamed_1758, %edi
	callq	count
	movl	-140(%rbp), %r14d
	movl	$.L__unnamed_1759, %edi
	callq	count
	cmpl	%r14d, %ebx
	sete	%r15b
	movl	$.L__unnamed_1760, %edi
	callq	count
	movzbl	%r15b, %esi
	movl	$.L__unnamed_1761, %edi
	callq	check
	movl	$.L__unnamed_1762, %edi
	callq	count
	cmpl	%r14d, %ebx
	jne	.LBB102_63
# BB#33:                                #   in Loop: Header=BB102_30 Depth=2
	movl	$.L__unnamed_1763, %edi
	callq	count
	movq	-136(%rbp), %rbx
	movl	$.L__unnamed_1764, %edi
	callq	count
	movl	$.L__unnamed_1765, %edi
	callq	count
	movq	%rbx, -160(%rbp)
	movl	$.L__unnamed_1766, %edi
	callq	count
	movq	-56(%rbp), %r14
	movl	$.L__unnamed_1767, %edi
	callq	count
	movl	$.L__unnamed_1768, %edi
	callq	count
	movl	$.L__unnamed_1769, %edi
	callq	count
	movl	-148(%rbp), %ebx
	movl	$.L__unnamed_1770, %edi
	callq	count
	movl	$.L__unnamed_1771, %edi
	callq	count
	leaq	200(%r14,%rbx), %rbx
	movl	$.L__unnamed_1772, %edi
	callq	count
	movl	$.L__unnamed_1773, %edi
	callq	count
	movq	%rbx, -168(%rbp)
	movl	$.L__unnamed_1774, %edi
	callq	count
	movl	$32, -172(%rbp)
	movl	$.L__unnamed_1775, %edi
	callq	count
	.align	16, 0x90
.LBB102_34:                             #   Parent Loop BB102_1 Depth=1
                                        #     Parent Loop BB102_30 Depth=2
                                        # =>    This Inner Loop Header: Depth=3
	movl	$.L__unnamed_1776, %edi
	callq	count
	movl	$.L__unnamed_1777, %edi
	callq	count
	movq	-160(%rbp), %rbx
	movl	$.L__unnamed_1778, %edi
	callq	count
	leaq	2(%rbx), %r14
	movl	$.L__unnamed_1779, %edi
	callq	count
	movq	%r14, -160(%rbp)
	movl	$.L__unnamed_1780, %edi
	callq	count
	movzwl	2(%rbx), %r14d
	movl	$.L__unnamed_1781, %edi
	callq	count
	movl	$.L__unnamed_1782, %edi
	callq	count
	movq	-168(%rbp), %rbx
	movl	$.L__unnamed_1783, %edi
	callq	count
	leaq	2(%rbx), %r15
	movl	$.L__unnamed_1784, %edi
	callq	count
	movq	%r15, -168(%rbp)
	movl	$.L__unnamed_1785, %edi
	callq	count
	movzwl	2(%rbx), %r15d
	movl	$.L__unnamed_1786, %edi
	callq	count
	movl	$.L__unnamed_1787, %edi
	callq	count
	cmpl	%r15d, %r14d
	sete	%bl
	movl	$.L__unnamed_1788, %edi
	callq	count
	movzbl	%bl, %esi
	movl	$.L__unnamed_1789, %edi
	callq	check
	movl	$.L__unnamed_1790, %edi
	callq	count
	cmpl	%r15d, %r14d
	jne	.LBB102_35
# BB#36:                                #   in Loop: Header=BB102_34 Depth=3
	movl	$.L__unnamed_1791, %edi
	callq	count
	movq	-160(%rbp), %rbx
	movl	$.L__unnamed_1792, %edi
	callq	count
	leaq	2(%rbx), %r14
	movl	$.L__unnamed_1793, %edi
	callq	count
	movq	%r14, -160(%rbp)
	movl	$.L__unnamed_1794, %edi
	callq	count
	movzwl	2(%rbx), %r14d
	movl	$.L__unnamed_1795, %edi
	callq	count
	movl	$.L__unnamed_1796, %edi
	callq	count
	movq	-168(%rbp), %rbx
	movl	$.L__unnamed_1797, %edi
	callq	count
	leaq	2(%rbx), %r15
	movl	$.L__unnamed_1798, %edi
	callq	count
	movq	%r15, -168(%rbp)
	movl	$.L__unnamed_1799, %edi
	callq	count
	movzwl	2(%rbx), %r15d
	movl	$.L__unnamed_1800, %edi
	callq	count
	movl	$.L__unnamed_1801, %edi
	callq	count
	cmpl	%r15d, %r14d
	sete	%bl
	movl	$.L__unnamed_1802, %edi
	callq	count
	movzbl	%bl, %esi
	movl	$.L__unnamed_1803, %edi
	callq	check
	movl	$.L__unnamed_1804, %edi
	callq	count
	cmpl	%r15d, %r14d
	jne	.LBB102_37
# BB#38:                                #   in Loop: Header=BB102_34 Depth=3
	movl	$.L__unnamed_1805, %edi
	callq	count
	movq	-160(%rbp), %rbx
	movl	$.L__unnamed_1806, %edi
	callq	count
	leaq	2(%rbx), %r14
	movl	$.L__unnamed_1807, %edi
	callq	count
	movq	%r14, -160(%rbp)
	movl	$.L__unnamed_1808, %edi
	callq	count
	movzwl	2(%rbx), %r14d
	movl	$.L__unnamed_1809, %edi
	callq	count
	movl	$.L__unnamed_1810, %edi
	callq	count
	movq	-168(%rbp), %rbx
	movl	$.L__unnamed_1811, %edi
	callq	count
	leaq	2(%rbx), %r15
	movl	$.L__unnamed_1812, %edi
	callq	count
	movq	%r15, -168(%rbp)
	movl	$.L__unnamed_1813, %edi
	callq	count
	movzwl	2(%rbx), %r15d
	movl	$.L__unnamed_1814, %edi
	callq	count
	movl	$.L__unnamed_1815, %edi
	callq	count
	cmpl	%r15d, %r14d
	sete	%bl
	movl	$.L__unnamed_1816, %edi
	callq	count
	movzbl	%bl, %esi
	movl	$.L__unnamed_1817, %edi
	callq	check
	movl	$.L__unnamed_1818, %edi
	callq	count
	cmpl	%r15d, %r14d
	jne	.LBB102_39
# BB#40:                                #   in Loop: Header=BB102_34 Depth=3
	movl	$.L__unnamed_1819, %edi
	callq	count
	movq	-160(%rbp), %rbx
	movl	$.L__unnamed_1820, %edi
	callq	count
	leaq	2(%rbx), %r14
	movl	$.L__unnamed_1821, %edi
	callq	count
	movq	%r14, -160(%rbp)
	movl	$.L__unnamed_1822, %edi
	callq	count
	movzwl	2(%rbx), %r14d
	movl	$.L__unnamed_1823, %edi
	callq	count
	movl	$.L__unnamed_1824, %edi
	callq	count
	movq	-168(%rbp), %rbx
	movl	$.L__unnamed_1825, %edi
	callq	count
	leaq	2(%rbx), %r15
	movl	$.L__unnamed_1826, %edi
	callq	count
	movq	%r15, -168(%rbp)
	movl	$.L__unnamed_1827, %edi
	callq	count
	movzwl	2(%rbx), %r15d
	movl	$.L__unnamed_1828, %edi
	callq	count
	movl	$.L__unnamed_1829, %edi
	callq	count
	cmpl	%r15d, %r14d
	sete	%bl
	movl	$.L__unnamed_1830, %edi
	callq	count
	movzbl	%bl, %esi
	movl	$.L__unnamed_1831, %edi
	callq	check
	movl	$.L__unnamed_1832, %edi
	callq	count
	cmpl	%r15d, %r14d
	jne	.LBB102_41
# BB#42:                                #   in Loop: Header=BB102_34 Depth=3
	movl	$.L__unnamed_1833, %edi
	callq	count
	movl	-172(%rbp), %ebx
	movl	$.L__unnamed_1834, %edi
	callq	count
	movl	$.L__unnamed_1835, %edi
	callq	count
	decl	%ebx
	movl	%ebx, -172(%rbp)
	setne	%bl
	movl	$.L__unnamed_1836, %edi
	callq	count
	movl	$.L__unnamed_1837, %edi
	callq	count
	jmp	.LBB102_43
	.align	16, 0x90
.LBB102_35:                             #   in Loop: Header=BB102_34 Depth=3
	xorl	%ebx, %ebx
	jmp	.LBB102_43
	.align	16, 0x90
.LBB102_37:                             #   in Loop: Header=BB102_34 Depth=3
	xorl	%ebx, %ebx
	jmp	.LBB102_43
.LBB102_39:                             #   in Loop: Header=BB102_34 Depth=3
	xorl	%ebx, %ebx
	jmp	.LBB102_43
.LBB102_41:                             #   in Loop: Header=BB102_34 Depth=3
	xorl	%ebx, %ebx
	.align	16, 0x90
.LBB102_43:                             #   in Loop: Header=BB102_34 Depth=3
	movl	$.L__unnamed_1838, %edi
	callq	count
	movzbl	%bl, %ebx
	movl	$.L__unnamed_1839, %edi
	movl	%ebx, %esi
	callq	check
	movl	$.L__unnamed_1840, %edi
	callq	count
	testb	%bl, %bl
	jne	.LBB102_34
# BB#44:                                #   in Loop: Header=BB102_30 Depth=2
	movl	$.L__unnamed_1841, %edi
	callq	count
	movl	-160(%rbp), %r14d
	movl	$.L__unnamed_1842, %edi
	callq	count
	subl	-136(%rbp), %r14d
	movl	$.L__unnamed_1843, %edi
	callq	count
	movl	$.L__unnamed_1844, %edi
	callq	count
	movl	$.L__unnamed_1845, %edi
	callq	count
	movl	$.L__unnamed_1846, %edi
	callq	count
	andl	$-2, %r14d
	movl	$.L__unnamed_1847, %edi
	callq	count
	movl	$.L__unnamed_1848, %edi
	callq	count
	movl	$.L__unnamed_1849, %edi
	callq	count
	movl	$.L__unnamed_1850, %edi
	callq	count
	movq	-160(%rbp), %rbx
	movl	$.L__unnamed_1851, %edi
	callq	count
	movl	$.L__unnamed_1852, %edi
	callq	count
	movzbl	(%rbx), %r15d
	movl	$.L__unnamed_1853, %edi
	callq	count
	movl	$.L__unnamed_1854, %edi
	callq	count
	movq	-168(%rbp), %rbx
	movl	$.L__unnamed_1855, %edi
	callq	count
	movl	$.L__unnamed_1856, %edi
	callq	count
	movzbl	(%rbx), %ebx
	movl	$.L__unnamed_1857, %edi
	callq	count
	movl	$.L__unnamed_1858, %edi
	callq	count
	cmpl	%ebx, %r15d
	sete	%bl
	movl	$.L__unnamed_1859, %edi
	callq	count
	movzbl	%bl, %ebx
	movl	$.L__unnamed_1860, %edi
	callq	count
	orl	%r14d, %ebx
	movl	$.L__unnamed_1861, %edi
	callq	count
	movl	%ebx, -124(%rbp)
	movl	$.L__unnamed_1862, %edi
	callq	count
	movl	-172(%rbp), %ebx
	movl	$.L__unnamed_1863, %edi
	callq	count
	cmpl	$0, %ebx
	setne	%r14b
	movl	$.L__unnamed_1864, %edi
	callq	count
	movzbl	%r14b, %esi
	movl	$.L__unnamed_1865, %edi
	callq	check
	movl	$.L__unnamed_1866, %edi
	callq	count
	cmpl	$0, %ebx
	jne	.LBB102_48
# BB#45:                                #   in Loop: Header=BB102_30 Depth=2
	movl	$.L__unnamed_1867, %edi
	callq	count
	movl	-120(%rbp), %ebx
	movl	$.L__unnamed_1868, %edi
	callq	count
	movl	$.L__unnamed_1869, %edi
	callq	count
	cmpl	$0, %ebx
	movl	$258, %ebx              # imm = 0x102
	jne	.LBB102_47
# BB#46:                                # %select.false
                                        #   in Loop: Header=BB102_30 Depth=2
	xorl	%ebx, %ebx
.LBB102_47:                             # %select.end
                                        #   in Loop: Header=BB102_30 Depth=2
	movl	$.L__unnamed_1870, %edi
	callq	count
	movl	%ebx, -124(%rbp)
	movl	$.L__unnamed_1871, %edi
	callq	count
.LBB102_48:                             #   in Loop: Header=BB102_30 Depth=2
	movl	$.L__unnamed_1872, %edi
	callq	count
	movl	-124(%rbp), %ebx
	movl	$.L__unnamed_1873, %edi
	callq	count
	movl	$.L__unnamed_1874, %edi
	callq	count
	cmpl	$3, %ebx
	sbbl	%esi, %esi
	andl	$1, %esi
	movl	$.L__unnamed_1875, %edi
	callq	check
	movl	$.L__unnamed_1876, %edi
	callq	count
	cmpl	$3, %ebx
	jb	.LBB102_51
# BB#49:                                #   in Loop: Header=BB102_30 Depth=2
	movl	$.L__unnamed_1877, %edi
	callq	count
	movl	-124(%rbp), %ebx
	movl	$.L__unnamed_1878, %edi
	callq	count
	cmpl	$3, %ebx
	sete	%r14b
	movl	$.L__unnamed_1879, %edi
	callq	count
	movzbl	%r14b, %esi
	movl	$.L__unnamed_1880, %edi
	callq	check
	movl	$.L__unnamed_1881, %edi
	callq	count
	cmpl	$3, %ebx
	jne	.LBB102_52
# BB#50:                                #   in Loop: Header=BB102_30 Depth=2
	movl	$.L__unnamed_1882, %edi
	callq	count
	movl	-120(%rbp), %ebx
	movl	$.L__unnamed_1883, %edi
	callq	count
	cmpl	$8191, %ebx             # imm = 0x1FFF
	seta	%r14b
	movl	$.L__unnamed_1884, %edi
	callq	count
	movzbl	%r14b, %esi
	movl	$.L__unnamed_1885, %edi
	callq	check
	movl	$.L__unnamed_1886, %edi
	callq	count
	cmpl	$8192, %ebx             # imm = 0x2000
	jb	.LBB102_52
.LBB102_51:                             #   in Loop: Header=BB102_30 Depth=2
	movl	$.L__unnamed_1887, %edi
	callq	count
	movl	$1, -124(%rbp)
	movl	$.L__unnamed_1888, %edi
	callq	count
	movb	-140(%rbp), %r14b
	movl	$.L__unnamed_1889, %edi
	callq	count
	movl	$.L__unnamed_1890, %edi
	callq	count
	movq	-88(%rbp), %rbx
	movl	$.L__unnamed_1891, %edi
	callq	count
	leaq	1(%rbx), %r15
	movl	$.L__unnamed_1892, %edi
	callq	count
	movq	%r15, -88(%rbp)
	movl	$.L__unnamed_1893, %edi
	callq	count
	movb	%r14b, (%rbx)
	movl	$.L__unnamed_1894, %edi
	callq	count
	movq	-96(%rbp), %rbx
	movl	$.L__unnamed_1895, %edi
	callq	count
	movzbl	(%rbx), %ebx
	movl	$.L__unnamed_1896, %edi
	callq	count
	movl	$.L__unnamed_1897, %edi
	callq	count
	shrl	%ebx
	movl	$.L__unnamed_1898, %edi
	callq	count
	movl	$.L__unnamed_1899, %edi
	callq	count
	movq	-96(%rbp), %r14
	movl	$.L__unnamed_1900, %edi
	callq	count
	movb	%bl, (%r14)
	movl	$.L__unnamed_1901, %edi
	callq	count
	movzbl	-140(%rbp), %r14d
	movl	$.L__unnamed_1902, %edi
	callq	count
	movl	$.L__unnamed_1903, %edi
	callq	count
	movl	$.L__unnamed_1904, %edi
	callq	count
	movq	-56(%rbp), %r15
	movl	$.L__unnamed_1905, %edi
	callq	count
	movl	$.L__unnamed_1906, %edi
	callq	count
	movl	$.L__unnamed_1907, %edi
	callq	count
	movl	$.L__unnamed_1908, %edi
	callq	count
	movw	33226(%r15,%r14,2), %bx
	movl	$.L__unnamed_1909, %edi
	callq	count
	incw	%bx
	movl	$.L__unnamed_1910, %edi
	callq	count
	movw	%bx, 33226(%r15,%r14,2)
	movl	$.L__unnamed_1911, %edi
	jmp	.LBB102_62
	.align	16, 0x90
.LBB102_63:                             #   in Loop: Header=BB102_30 Depth=2
	movl	$.L__unnamed_1912, %edi
	callq	count
	movb	-140(%rbp), %r14b
	movl	$.L__unnamed_1913, %edi
	callq	count
	movl	$.L__unnamed_1914, %edi
	callq	count
	movq	-88(%rbp), %rbx
	movl	$.L__unnamed_1915, %edi
	callq	count
	leaq	1(%rbx), %r15
	movl	$.L__unnamed_1916, %edi
	callq	count
	movq	%r15, -88(%rbp)
	movl	$.L__unnamed_1917, %edi
	callq	count
	movb	%r14b, (%rbx)
	movl	$.L__unnamed_1918, %edi
	callq	count
	movq	-96(%rbp), %rbx
	movl	$.L__unnamed_1919, %edi
	callq	count
	movzbl	(%rbx), %ebx
	movl	$.L__unnamed_1920, %edi
	callq	count
	movl	$.L__unnamed_1921, %edi
	callq	count
	shrl	%ebx
	movl	$.L__unnamed_1922, %edi
	callq	count
	movl	$.L__unnamed_1923, %edi
	callq	count
	movq	-96(%rbp), %r14
	movl	$.L__unnamed_1924, %edi
	callq	count
	movb	%bl, (%r14)
	movl	$.L__unnamed_1925, %edi
	callq	count
	movzbl	-140(%rbp), %r14d
	movl	$.L__unnamed_1926, %edi
	callq	count
	movl	$.L__unnamed_1927, %edi
	callq	count
	movl	$.L__unnamed_1928, %edi
	callq	count
	movq	-56(%rbp), %r15
	movl	$.L__unnamed_1929, %edi
	callq	count
	movl	$.L__unnamed_1930, %edi
	callq	count
	movl	$.L__unnamed_1931, %edi
	callq	count
	movl	$.L__unnamed_1932, %edi
	callq	count
	movw	33226(%r15,%r14,2), %bx
	movl	$.L__unnamed_1933, %edi
	callq	count
	incw	%bx
	movl	$.L__unnamed_1934, %edi
	callq	count
	movw	%bx, 33226(%r15,%r14,2)
	movl	$.L__unnamed_1935, %edi
	jmp	.LBB102_64
.LBB102_52:                             #   in Loop: Header=BB102_30 Depth=2
	movl	$.L__unnamed_1936, %edi
	callq	count
	movl	-124(%rbp), %r14d
	movl	$.L__unnamed_1937, %edi
	callq	count
	movl	-64(%rbp), %ebx
	movl	$.L__unnamed_1938, %edi
	callq	count
	movl	$.L__unnamed_1939, %edi
	callq	count
	cmpl	%ebx, %r14d
	sbbl	%esi, %esi
	andl	$1, %esi
	movl	$.L__unnamed_1940, %edi
	callq	check
	movl	$.L__unnamed_1941, %edi
	callq	count
	cmpl	%ebx, %r14d
	jae	.LBB102_54
# BB#53:                                #   in Loop: Header=BB102_30 Depth=2
	movl	$.L__unnamed_1942, %edi
	callq	count
	movl	-124(%rbp), %ebx
	movl	$.L__unnamed_1943, %edi
	jmp	.LBB102_55
.LBB102_54:                             #   in Loop: Header=BB102_30 Depth=2
	movl	$.L__unnamed_1944, %edi
	callq	count
	movl	-64(%rbp), %ebx
	movl	$.L__unnamed_1945, %edi
.LBB102_55:                             #   in Loop: Header=BB102_30 Depth=2
	callq	count
	movl	$.L__unnamed_1946, %edi
	callq	count
	movl	%ebx, -124(%rbp)
	movl	$.L__unnamed_1947, %edi
	callq	count
	movl	-124(%rbp), %ebx
	movl	$.L__unnamed_1948, %edi
	callq	count
	cmpl	$2, %ebx
	seta	%r14b
	movl	$.L__unnamed_1949, %edi
	callq	count
	movzbl	%r14b, %esi
	movl	$.L__unnamed_1950, %edi
	callq	check
	movl	$.L__unnamed_1951, %edi
	callq	count
	cmpl	$3, %ebx
	jb	.LBB102_92
# BB#56:                                #   in Loop: Header=BB102_30 Depth=2
	movl	$.L__unnamed_1952, %edi
	callq	count
	movl	-120(%rbp), %ebx
	movl	$.L__unnamed_1953, %edi
	callq	count
	cmpl	$0, %ebx
	setne	%r14b
	movl	$.L__unnamed_1954, %edi
	callq	count
	movzbl	%r14b, %esi
	movl	$.L__unnamed_1955, %edi
	callq	check
	movl	$.L__unnamed_1956, %edi
	callq	count
	cmpl	$0, %ebx
	je	.LBB102_92
# BB#57:                                #   in Loop: Header=BB102_30 Depth=2
	movl	$.L__unnamed_1957, %edi
	callq	count
	movl	-120(%rbp), %ebx
	movl	$.L__unnamed_1958, %edi
	callq	count
	movl	$.L__unnamed_1959, %edi
	callq	count
	cmpl	$32769, %ebx            # imm = 0x8001
	sbbl	%esi, %esi
	andl	$1, %esi
	movl	$.L__unnamed_1960, %edi
	callq	check
	movl	$.L__unnamed_1961, %edi
	callq	count
	cmpl	$32769, %ebx            # imm = 0x8001
	jae	.LBB102_92
# BB#58:                                #   in Loop: Header=BB102_30 Depth=2
	movl	$.L__unnamed_1962, %edi
	callq	count
	movl	$.L__unnamed_1963, %edi
	callq	count
	movl	-120(%rbp), %ebx
	movl	$.L__unnamed_1964, %edi
	callq	count
	decl	%ebx
	movl	$.L__unnamed_1965, %edi
	callq	count
	movl	%ebx, -120(%rbp)
	movl	$.L__unnamed_1966, %edi
	callq	count
	movl	-124(%rbp), %ebx
	movl	$.L__unnamed_1967, %edi
	callq	count
	addl	$-3, %ebx
	movl	$.L__unnamed_1968, %edi
	callq	count
	movl	$.L__unnamed_1969, %edi
	callq	count
	movq	-88(%rbp), %r14
	movl	$.L__unnamed_1970, %edi
	callq	count
	movl	$.L__unnamed_1971, %edi
	callq	count
	movb	%bl, (%r14)
	movl	$.L__unnamed_1972, %edi
	callq	count
	movw	-120(%rbp), %r14w
	movl	$.L__unnamed_1973, %edi
	callq	count
	movl	$.L__unnamed_1974, %edi
	callq	count
	movq	-88(%rbp), %rbx
	movl	$.L__unnamed_1975, %edi
	callq	count
	movl	$.L__unnamed_1976, %edi
	callq	count
	movl	$.L__unnamed_1977, %edi
	callq	count
	movw	%r14w, 1(%rbx)
	movl	$.L__unnamed_1978, %edi
	callq	count
	movq	-88(%rbp), %rbx
	movl	$.L__unnamed_1979, %edi
	callq	count
	addq	$3, %rbx
	movl	$.L__unnamed_1980, %edi
	callq	count
	movq	%rbx, -88(%rbp)
	movl	$.L__unnamed_1981, %edi
	callq	count
	movq	-96(%rbp), %rbx
	movl	$.L__unnamed_1982, %edi
	callq	count
	movzbl	(%rbx), %ebx
	movl	$.L__unnamed_1983, %edi
	callq	count
	movl	$.L__unnamed_1984, %edi
	callq	count
	shrl	%ebx
	movl	$.L__unnamed_1985, %edi
	callq	count
	orl	$128, %ebx
	movl	$.L__unnamed_1986, %edi
	callq	count
	movl	$.L__unnamed_1987, %edi
	callq	count
	movq	-96(%rbp), %r14
	movl	$.L__unnamed_1988, %edi
	callq	count
	movb	%bl, (%r14)
	movl	$.L__unnamed_1989, %edi
	callq	count
	movl	-120(%rbp), %ebx
	movl	$.L__unnamed_1990, %edi
	callq	count
	movl	$.L__unnamed_1991, %edi
	callq	count
	andl	$511, %ebx              # imm = 0x1FF
	movl	$.L__unnamed_1992, %edi
	callq	count
	movl	$.L__unnamed_1993, %edi
	callq	count
	movl	$.L__unnamed_1994, %edi
	callq	count
	movzbl	s_tdefl_small_dist_sym(%rbx), %ebx
	movl	$.L__unnamed_1995, %edi
	callq	count
	movl	%ebx, -176(%rbp)
	movl	$.L__unnamed_1996, %edi
	callq	count
	movl	-120(%rbp), %ebx
	movl	$.L__unnamed_1997, %edi
	callq	count
	shrl	$8, %ebx
	movl	$.L__unnamed_1998, %edi
	callq	count
	movl	$.L__unnamed_1999, %edi
	callq	count
	movl	$.L__unnamed_2000, %edi
	callq	count
	movl	$.L__unnamed_2001, %edi
	callq	count
	movzbl	s_tdefl_large_dist_sym(%rbx), %ebx
	movl	$.L__unnamed_2002, %edi
	callq	count
	movl	%ebx, -180(%rbp)
	movl	$.L__unnamed_2003, %edi
	callq	count
	movl	-120(%rbp), %ebx
	movl	$.L__unnamed_2004, %edi
	callq	count
	movl	$.L__unnamed_2005, %edi
	callq	count
	cmpl	$512, %ebx              # imm = 0x200
	sbbl	%esi, %esi
	andl	$1, %esi
	movl	$.L__unnamed_2006, %edi
	callq	check
	movl	$.L__unnamed_2007, %edi
	callq	count
	cmpl	$511, %ebx              # imm = 0x1FF
	ja	.LBB102_60
